ccollections
defaultdict
p0
(c__builtin__
set
p1
tp2
Rp3
S'00093-5119-98'
p4
g1
((lp5
S'300'
p6
aS''
p7
aS'BVF'
p8
aS'BVE'
p9
atp10
Rp11
sS'00093-2203-01'
p12
g1
((lp13
g7
aS'EVI'
p14
atp15
Rp16
sS'50111-0393-01'
p17
g1
((lp18
g7
aS'\xe3\x81\xa811'
p19
atp20
Rp21
sS'52544-0152-30'
p22
g1
((lp23
g7
aS'8'
p24
aS'mg'
p25
aS'WATSO'
p26
aS'Go'
p27
atp28
Rp29
sS'00093-5117-98'
p30
g1
((lp31
g7
aS'180'
p32
aS'BVF'
p33
aS'6'
p34
atp35
Rp36
sS'29033-0020-12'
p37
g1
((lp38
g7
aS'200'
p39
aS'NC'
p40
atp41
Rp42
sS'00093-7326-01'
p43
g1
((lp44
g7
aS'9'
p45
aS'7326'
p46
aS'3'
p47
atp48
Rp49
sS'00378-0143-01'
p50
g1
((lp51
g7
aS'MYLAN'
p52
aS'143'
p53
atp54
Rp55
sS'00555-0832-02'
p56
g1
((lp57
S'832'
p58
aS'21/2'
p59
ag7
atp60
Rp61
sS'00603-5771-21'
p62
g1
((lp63
g7
ag24
atp64
Rp65
sS'00002-3238-30'
p66
g1
((lp67
g7
aS'mg'
p68
aS'3238'
p69
aS'Sy18'
p70
atp71
Rp72
sS'00555-1057-86'
p73
g1
((lp74
g7
aS'barr'
p75
aS'936'
p76
atp77
Rp78
sS'00555-9009-42'
p79
g1
((lp80
g7
aS'949'
p81
atp82
Rp83
sS'00781-2053-01'
p84
g1
((lp85
S'623'
p86
ag7
atp87
Rp88
sS'00603-5165-32'
p89
g1
((lp90
g7
aS'5011'
p91
atp92
Rp93
sS'51672-4033-01'
p94
g1
((lp95
g7
aS'WARFARIA'
p96
aS'TARO'
p97
atp98
Rp99
sS'00173-0933-08'
p100
g1
((lp101
g7
aS'mg'
p102
aS'VALTREX'
p103
aS'500'
p104
atp105
Rp106
sS'53489-0384-01'
p107
g1
((lp108
S'1'
p109
aS'18'
p110
ag7
atp111
Rp112
sS'00074-9189-90'
p113
g1
((lp114
g7
aS'135'
p115
atp116
Rp117
sS'00093-2270-34'
p118
g1
((lp119
g7
aS'2270'
p120
atp121
Rp122
sS'00093-0771-98'
p123
g1
((lp124
g7
aS'EVA'
p125
atp126
Rp127
sS'00093-7796-06'
p128
g1
((lp129
g7
aS'TV/7796'
p130
atp131
Rp132
sS'00093-0148-01'
p133
g1
((lp134
g7
ag24
aS'14'
p135
atp136
Rp137
sS'00591-2473-19'
p138
g1
((lp139
g7
aS'2233'
p140
atp141
Rp142
sS'00169-0081-81'
p143
g1
((lp144
g7
aS'\xe3\x83\x90D'
p145
aS'7'
p146
atp147
Rp148
sS'00093-0028-01'
p149
g1
((lp150
g7
aS'28'
p151
atp152
Rp153
sS'65580-0304-03'
p154
g1
((lp155
g7
aS'304'
p156
aS'OS'
p157
atp158
Rp159
sS'00591-0302-01'
p160
g1
((lp161
g7
aS'802'
p162
atp163
Rp164
sS'00093-4030-01'
p165
g1
((lp166
g7
aS'4030'
p167
aS'TEVA'
p168
atp169
Rp170
sS'00093-7442-56'
p171
g1
((lp172
g7
aS'TEVA7442'
p173
atp174
Rp175
sS'00093-7178-01'
p176
g1
((lp177
g7
aS'7178'
p178
atp179
Rp180
sS'00093-7380-01'
p181
g1
((lp182
g7
aS'7380'
p183
atp184
Rp185
sS'63459-0700-60'
p186
g1
((lp187
g7
ag45
aS'mg'
p188
aS'5'
p189
aS'halon'
p190
atp191
Rp192
sS'00228-2551-06'
p193
g1
((lp194
g7
aS'551'
p195
atp196
Rp197
sS'50111-0326-01'
p198
g1
((lp199
g7
aS'326'
p200
aS'PLIVA'
p201
atp202
Rp203
sS'00093-7350-56'
p204
g1
((lp205
g7
aS'7350'
p206
aS'93'
p207
atp208
Rp209
sS'50111-0647-01'
p210
g1
((lp211
g7
aS'\xe5\xaf\xb8'
p212
atp213
Rp214
sS'00149-0007-05'
p215
g1
((lp216
g7
aS'540'
p217
aS'N2'
p218
aS'00'
p219
atp220
Rp221
sS'62559-1507-00'
p222
g1
((lp223
g7
aS'1507'
p224
atp225
Rp226
sS'00781-1506-01'
p227
g1
((lp228
g7
aS'06'
p229
aS'GC'
p230
atp231
Rp232
sS'00555-1056-86'
p233
g1
((lp234
g7
aS'barr'
p235
aS'454'
p236
atp237
Rp238
sS'00093-3123-01'
p239
g1
((lp240
g7
aS'3123'
p241
aS'TEVA'
p242
atp243
Rp244
sS'66213-0421-10'
p245
g1
((lp246
S'421'
p247
ag7
atp248
Rp249
sS'00378-3482-01'
p250
g1
((lp251
g7
aS'482'
p252
atp253
Rp254
sS'00173-0758-60'
p255
g1
((lp256
S'XR'
p257
ag7
aS'MIC'
p258
aS'2'
p259
aS'CTA'
p260
atp261
Rp262
sS'51672-4030-01'
p263
g1
((lp264
g7
aS'WAREARIR'
p265
aS'ARO'
p266
atp267
Rp268
sS'00093-2075-01'
p269
g1
((lp270
g7
aS'TEVA'
p271
aS'8815'
p272
atp273
Rp274
sS'00555-0925-02'
p275
g1
((lp276
g7
aS'barn'
p277
atp278
Rp279
sS'00173-0562-00'
p280
g1
((lp281
g7
aS'GXCE'
p282
atp283
Rp284
sS'60505-1308-01'
p285
g1
((lp286
g7
aS'APO'
p287
atp288
Rp289
sS'50111-0851-01'
p290
g1
((lp291
g7
aS'PA46'
p292
atp293
Rp294
sS'00173-0785-01'
p295
g1
((lp296
g7
aS'70'
p297
atp298
Rp299
sS'50458-0925-50'
p300
g1
((lp301
S'LEYAQUIN'
p302
ag7
atp303
Rp304
sS'00093-4236-01'
p305
g1
((lp306
g7
aS'236'
p307
aS'23'
p308
atp309
Rp310
sS'00378-2537-01'
p311
g1
((lp312
g7
aS'MYLAN'
p313
aS'37'
p314
aS'2537'
p315
atp316
Rp317
sS'65580-0303-03'
p318
g1
((lp319
g7
aS'303'
p320
aS'OS'
p321
atp322
Rp323
sS'00555-0635-09'
p324
g1
((lp325
g7
aS'barr'
p326
aS'635'
p327
atp328
Rp329
sS'59762-2003-01'
p330
g1
((lp331
g7
aS'2003'
p332
aS'4'
p333
atp334
Rp335
sS'60505-0146-00'
p336
g1
((lp337
g7
aS'APO'
p338
aS'040'
p339
atp340
Rp341
sS'00093-4232-01'
p342
g1
((lp343
g7
aS'L1232'
p344
atp345
Rp346
sS'00093-7227-72'
p347
g1
((lp348
g7
aS'93'
p349
aS'7227'
p350
atp351
Rp352
sS'00093-7437-01'
p353
g1
((lp354
g7
aS'93'
p355
aS'7437'
p356
atp357
Rp358
sS'00093-7383-01'
p359
g1
((lp360
g7
aS'7383'
p361
atp362
Rp363
sS'58468-0130-01'
p364
g1
((lp365
g7
aS'800'
p366
aS'RENVELA'
p367
atp368
Rp369
sS'50111-0325-01'
p370
g1
((lp371
g7
aS'325'
p372
aS'PLIVA'
p373
atp374
Rp375
sS'51285-0692-02'
p376
g1
((lp377
g7
aS'/00'
p378
atp379
Rp380
sS'50111-0468-01'
p381
g1
((lp382
g45
ag7
ag34
atp383
Rp384
sS'00093-3160-06'
p385
g1
((lp386
g7
aS'93'
p387
aS'3160'
p388
atp389
Rp390
sS'00093-0311-01'
p391
g1
((lp392
g7
aS'93'
p393
aS'311'
p394
atp395
Rp396
sS'54092-0517-02'
p397
g1
((lp398
g7
aS'3MG'
p399
aS'503'
p400
atp401
Rp402
sS'00378-3475-01'
p403
g1
((lp404
g7
aS'475'
p405
atp406
Rp407
sS'00093-7198-56'
p408
g1
((lp409
g7
aS'TEVA'
p410
aS'7198'
p411
atp412
Rp413
sS'68180-0480-01'
p414
g1
((lp415
g7
aS'C04'
p416
atp417
Rp418
sS'00093-0787-01'
p419
g1
((lp420
g7
aS'VA'
p421
aS't'
p422
atp423
Rp424
sS'00172-4358-46'
p425
g1
((lp426
S'300'
p427
ag7
aS'358'
p428
atp429
Rp430
sS'51285-0082-97'
p431
g1
((lp432
g7
aS'978'
p433
atp434
Rp435
sS'00093-3165-01'
p436
g1
((lp437
g7
aS'TEVA'
p438
aS'3165'
p439
aS'93'
p440
atp441
Rp442
sS'51285-0754-02'
p443
g1
((lp444
g7
aS'A5'
p445
aS'17'
p446
atp447
Rp448
sS'00555-1020-01'
p449
g1
((lp450
g7
ag24
aS'mg'
p451
aS'barr'
p452
aS'1020'
p453
atp454
Rp455
sS'00527-1413-01'
p456
g1
((lp457
g7
aS'LCI'
p458
atp459
Rp460
sS'00002-3250-30'
p461
g1
((lp462
S'3250'
p463
ag7
aS'80'
p464
aS'mg'
p465
aS'828'
p466
atp467
Rp468
sS'00093-8940-01'
p469
g1
((lp470
g7
aS'200'
p471
aS'940'
p472
atp473
Rp474
sS'00555-0066-02'
p475
g1
((lp476
g7
aS'C)'
p477
aS'990'
p478
aS'\xe3\x81\xae1'
p479
atp480
Rp481
sS'00002-3228-30'
p482
g1
((lp483
g7
aS'mg'
p484
aS'Aeay25'
p485
aS'3228'
p486
atp487
Rp488
sS'25010-0205-15'
p489
g1
((lp490
g7
aS'ATON\xc4\xb0'
p491
aS'2.65'
p492
atp493
Rp494
sS'00093-7336-06'
p495
g1
((lp496
g7
aS'7336'
p497
aS'TEVA'
p498
atp499
Rp500
sS'00378-5123-01'
p501
g1
((lp502
g7
aS'S23'
p503
atp504
Rp505
sS'00078-0574-15'
p506
g1
((lp507
g7
aS'VR'
p508
aS'N'
p509
atp510
Rp511
sS'00378-3205-01'
p512
g1
((lp513
S'MYLANMYLAN'
p514
ag7
aS'3205'
p515
atp516
Rp517
sS'00093-0924-01'
p518
g1
((lp519
g7
aS'092'
p520
atp521
Rp522
sS'00172-5034-60'
p523
g1
((lp524
S'20/12.5'
p525
ag7
atp526
Rp527
sS'00004-0800-85'
p528
g1
((lp529
S'ROCHE'
p530
ag7
aS'75'
p531
aS'mg'
p532
atp533
Rp534
sS'50111-0328-01'
p535
g1
((lp536
g7
ag259
atp537
Rp538
sS'00781-1191-01'
p539
g1
((lp540
g7
aS'cor'
p541
atp542
Rp543
sS'00093-3127-01'
p544
g1
((lp545
g7
aS'93'
p546
aS'3127'
p547
atp548
Rp549
sS'59762-5033-02'
p550
g1
((lp551
S'110\xe9\xbe\x9b'
p552
aS'10'
p553
ag7
atp554
Rp555
sS'00093-5711-01'
p556
g1
((lp557
g7
aS'500'
p558
atp559
Rp560
sS'00777-3105-02'
p561
g1
((lp562
g7
aS'mg'
p563
aS'PROZAC'
p564
aS'20'
p565
aS'3105'
p566
aS'DISTA'
p567
atp568
Rp569
sS'00054-4182-25'
p570
g1
((lp571
g7
ag189
aS'CN'
p572
aS'LA'
p573
atp574
Rp575
sS'68968-3500-01'
p576
g1
((lp577
S'NVN2'
p578
ag7
atp579
Rp580
sS'00093-7254-01'
p581
g1
((lp582
g7
ag189
atp583
Rp584
sS'00555-0886-02'
p585
g1
((lp586
g7
aS'886'
p587
atp588
Rp589
sS'00093-4336-01'
p590
g1
((lp591
S'4336'
p592
ag109
aS'mg'
p593
ag7
atp594
Rp595
sS'00003-4222-16'
p596
g1
((lp597
g7
aS'2.5/1000'
p598
aS'4222'
p599
atp600
Rp601
sS'00172-7312-46'
p602
g1
((lp603
g7
aS'100'
p604
aS'mg'
p605
atp606
Rp607
sS'00555-0808-02'
p608
g1
((lp609
g7
aS'barr'
p610
aS'808'
p611
atp612
Rp613
sS'65580-0302-03'
p614
g1
((lp615
g7
aS'302'
p616
aS'os'
p617
atp618
Rp619
sS'00781-2201-01'
p620
g1
((lp621
g7
aS'531'
p622
atp623
Rp624
sS'00555-0634-02'
p625
g1
((lp626
g7
aS'barr'
p627
aS'634'
p628
atp629
Rp630
sS'65197-0002-01'
p631
g1
((lp632
g7
aS'mg'
p633
aS'50'
p634
aS'DYRENIUNM'
p635
aS'002'
p636
aS'DYRENIUM'
p637
aS'WPC'
p638
atp639
Rp640
sS'00093-7438-01'
p641
g1
((lp642
g7
aS'93'
p643
aS'7438'
p644
atp645
Rp646
sS'00093-2272-34'
p647
g1
((lp648
g7
aS'2212'
p649
aS'93'
p650
atp651
Rp652
sS'00781-5189-01'
p653
g1
((lp654
S'GG'
p655
ag7
aS'310'
p656
aS'200'
p657
atp658
Rp659
sS'54092-0189-81'
p660
g1
((lp661
g7
aS'S429'
p662
aS'250'
p663
aS'2010'
p664
aS'mg'
p665
atp666
Rp667
sS'00093-7466-98'
p668
g1
((lp669
g7
aS'EVI'
p670
atp671
Rp672
sS'00093-4069-01'
p673
g1
((lp674
g7
aS'TEVA'
p675
aS'4069'
p676
atp677
Rp678
sS'59762-2004-01'
p679
g1
((lp680
g7
aS'2004'
p681
atp682
Rp683
sS'00555-0733-02'
p684
g1
((lp685
g7
aS'100'
p686
atp687
Rp688
sS'00093-0657-01'
p689
g1
((lp690
g7
aS'0'
p691
ag47
aS'93'
p692
aS'657'
p693
atp694
Rp695
sS'00093-3193-01'
p696
g1
((lp697
g7
aS'93'
p698
aS'3193'
p699
atp700
Rp701
sS'00093-2080-01'
p702
g1
((lp703
g7
aS'TEVA'
p704
aS'2080'
p705
atp706
Rp707
sS'00093-0658-01'
p708
g1
((lp709
g7
ag24
aS'65'
p710
atp711
Rp712
sS'00093-1044-01'
p713
g1
((lp714
S'0444'
p715
ag7
atp716
Rp717
sS'00093-7334-01'
p718
g1
((lp719
g7
aS'TEVA'
p720
aS'7334'
p721
atp722
Rp723
sS'00555-1055-86'
p724
g1
((lp725
g7
aS'barr'
p726
aS'935'
p727
atp728
Rp729
sS'51285-0538-02'
p730
g1
((lp731
g7
aS'718'
p732
aS'OP'
p733
atp734
Rp735
sS'00093-3125-01'
p736
g1
((lp737
g7
aS'TEVA'
p738
aS'3125'
p739
atp740
Rp741
sS'00555-0302-02'
p742
g1
((lp743
g7
aS'302'
p744
aS'barr'
p745
aS'50'
p746
atp747
Rp748
sS'00093-3195-01'
p749
g1
((lp750
g7
aS'TEVA'
p751
aS'3195'
p752
atp753
Rp754
sS'00037-2250-10'
p755
g1
((lp756
S'SOMA'
p757
ag7
atp758
Rp759
sS'49884-0652-01'
p760
g1
((lp761
g7
aS'652'
p762
atp763
Rp764
sS'00093-4067-01'
p765
g1
((lp766
g7
aS'TEVA'
p767
aS'4067'
p768
atp769
Rp770
sS'50111-0324-01'
p771
g1
((lp772
g7
aS'1.1'
p773
aS'IV\xe2\x96\xb3'
p774
atp775
Rp776
sS'00093-4068-01'
p777
g1
((lp778
g7
aS'TEVA'
p779
aS'4068'
p780
atp781
Rp782
sS'64720-0323-10'
p783
g1
((lp784
g7
aS'323'
p785
aS'cor'
p786
atp787
Rp788
sS'00078-0572-15'
p789
g1
((lp790
g7
aS'R'
p791
aS'V'
p792
aS'HDU'
p793
ag509
atp794
Rp795
sS'00093-7202-98'
p796
g1
((lp797
g7
aS'7202'
p798
atp799
Rp800
sS'00093-3147-01'
p801
g1
((lp802
g7
aS'TEVA'
p803
aS'317'
p804
aS'93'
p805
aS'3147'
p806
atp807
Rp808
sS'00555-9012-58'
p809
g1
((lp810
g45
ag7
atp811
Rp812
sS'00555-0071-01'
p813
g1
((lp814
g7
aS'30O'
p815
aS'071'
p816
atp817
Rp818
sS'00093-5118-98'
p819
g1
((lp820
g7
aS'BVF'
p821
aS'240'
p822
atp823
Rp824
sS'10144-0606-15'
p825
g1
((lp826
g7
aS'JN9'
p827
atp828
Rp829
sS'00093-0928-06'
p830
g1
((lp831
g7
aS'IEVA'
p832
atp833
Rp834
sS'64764-0805-30'
p835
g1
((lp836
g7
aS'\xe3\x82\x938,'
p837
atp838
Rp839
sS'00093-7671-01'
p840
g1
((lp841
g7
aS'TEVA'
p842
aS'7671'
p843
atp844
Rp845
sS'00093-3196-53'
p846
g1
((lp847
g7
aS'3196'
p848
aS'93'
p849
atp850
Rp851
sS'00093-7325-01'
p852
g1
((lp853
g7
aS'7325'
p854
atp855
Rp856
sS'00173-0135-55'
p857
g1
((lp858
g7
aS'BUTR'
p859
aS'SA'
p860
aS'150'
p861
atp862
Rp863
sS'00023-9350-07'
p864
g1
((lp865
S'60'
p866
ag7
aS'SAN'
p867
atp868
Rp869
sS'00378-3495-01'
p870
g1
((lp871
g7
aS'495'
p872
atp873
Rp874
sS'00093-3002-56'
p875
g1
((lp876
g7
aS'93'
p877
aS'3002'
p878
atp879
Rp880
sS'00781-5187-01'
p881
g1
((lp882
S'GG'
p883
ag7
aS'338'
p884
atp885
Rp886
sS'00555-0059-02'
p887
g1
((lp888
g7
aS'o59e'
p889
aS'barr'
p890
atp891
Rp892
sS'00093-5256-68'
p893
g1
((lp894
g7
aS'TEVA'
p895
aS'5256'
p896
aS'93'
p897
atp898
Rp899
sS'00228-2779-11'
p900
g1
((lp901
g7
aS'2779'
p902
aS'-R'
p903
atp904
Rp905
sS'10144-0602-15'
p906
g1
((lp907
g7
aS'JNZ'
p908
atp909
Rp910
sS'00093-1052-01'
p911
g1
((lp912
g7
aS'1052'
p913
atp914
Rp915
sS'00781-5186-01'
p916
g1
((lp917
S'GG'
p918
ag7
aS'337'
p919
atp920
Rp921
sS'00093-3109-53'
p922
g1
((lp923
g7
aS'TEVA'
p924
aS'3109'
p925
atp926
Rp927
sS'00555-1021-01'
p928
g1
((lp929
g7
aS'barr'
p930
aS'mg1021'
p931
aS'16'
p932
atp933
Rp934
sS'00832-1024-00'
p935
g1
((lp936
S'832'
p937
ag7
atp938
Rp939
sS'00093-7670-01'
p940
g1
((lp941
g7
aS'TEVA'
p942
aS'7670'
p943
atp944
Rp945
sS'68012-0104-30'
p946
g1
((lp947
g7
aS'40'
p948
atp949
Rp950
sS'00555-1883-02'
p951
g1
((lp952
g7
aS'\xd0\xa0\xd0\x9083'
p953
atp954
Rp955
sS'00555-0589-01'
p956
g1
((lp957
g45
aS'rm'
p958
ag24
ag7
aS'a0'
p959
atp960
Rp961
sS'00378-1010-01'
p962
g1
((lp963
g7
aS'MYLAN'
p964
aS'1010'
p965
atp966
Rp967
sS'00378-0183-01'
p968
g1
((lp969
g7
aS'20'
p970
atp971
Rp972
sS'00781-5181-01'
p973
g1
((lp974
S'33'
p975
ag7
aS'6G'
p976
atp977
Rp978
sS'00591-0388-01'
p979
g1
((lp980
g7
aS'WAISON'
p981
atp982
Rp983
sS'00093-7386-56'
p984
g1
((lp985
g7
aS'93'
p986
aS'7386'
p987
atp988
Rp989
sS'00009-7663-04'
p990
g1
((lp991
g7
aS'7663'
p992
atp993
Rp994
sS'00093-7270-98'
p995
g1
((lp996
g7
ag259
atp997
Rp998
sS'47335-0580-81'
p999
g1
((lp1000
g7
aS'124'
p1001
atp1002
Rp1003
sS'00093-4338-01'
p1004
g1
((lp1005
g7
aS'mg'
p1006
ag189
aS'4338'
p1007
atp1008
Rp1009
sS'00093-0576-06'
p1010
g1
((lp1011
g45
ag7
ag47
aS'576'
p1012
aS'TEVA'
p1013
atp1014
Rp1015
sS'66582-0313-31'
p1016
g1
((lp1017
g7
ag47
atp1018
Rp1019
sS'00093-5506-56'
p1020
g1
((lp1021
S'5506'
p1022
ag7
aS'TEVA'
p1023
atp1024
Rp1025
sS'51672-4016-01'
p1026
g1
((lp1027
g7
aS'200'
p1028
aS'MG'
p1029
aS'ETO'
p1030
atp1031
Rp1032
sS'00555-0323-02'
p1033
g1
((lp1034
g7
aS'323'
p1035
aS'barr'
p1036
aS'25'
p1037
atp1038
Rp1039
sS'00093-4741-01'
p1040
g1
((lp1041
g7
ag47
atp1042
Rp1043
sS'00002-3251-30'
p1044
g1
((lp1045
g7
aS'en,100'
p1046
aS'mg'
p1047
aS'325'
p1048
atp1049
Rp1050
sS'65162-0212-11'
p1051
g1
((lp1052
g7
aS'IP'
p1053
aS'212'
p1054
atp1055
Rp1056
sS'00781-5183-01'
p1057
g1
((lp1058
S'GG'
p1059
ag7
aS'331'
p1060
atp1061
Rp1062
sS'00093-7436-01'
p1063
g1
((lp1064
g7
aS'03'
p1065
aS'93'
p1066
aS'7436'
p1067
atp1068
Rp1069
sS'00093-5507-56'
p1070
g1
((lp1071
g7
aS'5507'
p1072
aS'TEVA'
p1073
atp1074
Rp1075
sS'00145-3817-03'
p1076
g1
((lp1077
S'1.17.5m'
p1078
ag7
atp1079
Rp1080
sS'00555-0874-02'
p1081
g1
((lp1082
g7
aS'art'
p1083
atp1084
Rp1085
sS'00172-5413-46'
p1086
g1
((lp1087
g7
ag189
aS'290'
p1088
aS'413'
p1089
atp1090
Rp1091
sS'00093-0054-01'
p1092
g1
((lp1093
g7
aS'EVA'
p1094
atp1095
Rp1096
sS'00555-9016-58'
p1097
g1
((lp1098
g7
aS'987'
p1099
atp1100
Rp1101
sS'00591-3210-60'
p1102
g1
((lp1103
g7
aS'WATSON'
p1104
aS'3210'
p1105
atp1106
Rp1107
sS'41616-0759-83'
p1108
g1
((lp1109
g7
aS'759'
p1110
atp1111
Rp1112
sS'59148-0006-13'
p1113
g1
((lp1114
g7
aS'006'
p1115
atp1116
Rp1117
sS'00093-3171-01'
p1118
g1
((lp1119
S'3171'
p1120
ag7
aS'TEVA'
p1121
aS'93'
p1122
atp1123
Rp1124
sS'00172-4960-58'
p1125
g1
((lp1126
g7
aS'096t'
p1127
atp1128
Rp1129
sS'43386-0660-24'
p1130
g1
((lp1131
S'300'
p1132
ag7
aS'Novel'
p1133
atp1134
Rp1135
sS'00002-3229-30'
p1136
g1
((lp1137
g7
aS'mg'
p1138
aS'Sen40'
p1139
aS'3229'
p1140
atp1141
Rp1142
sS'00310-0282-60'
p1143
g1
((lp1144
g7
aS'200'
p1145
atp1146
Rp1147
sS'00555-0869-02'
p1148
g1
((lp1149
S'869'
p1150
ag7
ag259
atp1151
Rp1152
sS'00074-1973-54'
p1153
g1
((lp1154
g7
aS'VICODN'
p1155
atp1156
Rp1157
sS'00093-4404-01'
p1158
g1
((lp1159
g7
aS'50'
p1160
atp1161
Rp1162
sS'59762-5021-01'
p1163
g1
((lp1164
g7
aS'020'
p1165
atp1166
Rp1167
sS'47781-0307-01'
p1168
g1
((lp1169
g7
aS'mg'
p1170
aS'2427-28'
p1171
aS'MACRODAN'
p1172
aS'50'
p1173
atp1174
Rp1175
sS'00093-0813-01'
p1176
g1
((lp1177
g7
aS'0813'
p1178
aS'TEVA'
p1179
ag259
ag189
ag146
ag45
aS'75mg'
p1180
atp1181
Rp1182
sS'00143-1257-01'
p1183
g1
((lp1184
g7
aS'257'
p1185
atp1186
Rp1187
sS'00093-4405-01'
p1188
g1
((lp1189
g7
aS'200'
p1190
atp1191
Rp1192
sS'00071-1015-68'
p1193
g1
((lp1194
g7
aS'PGN'
p1195
ag509
aS'Pizer'
p1196
aS'100'
p1197
aS'PG'
p1198
atp1199
Rp1200
sS'00093-1024-06'
p1201
g1
((lp1202
g7
aS'O2L'
p1203
atp1204
Rp1205
sS'00093-0812-01'
p1206
g1
((lp1207
g7
aS'mg'
p1208
aS'812'
p1209
aS'93'
p1210
aS'50'
p1211
atp1212
Rp1213
sS'00093-2130-01'
p1214
g1
((lp1215
g7
aS'mg'
p1216
aS'50'
p1217
aS'Zenith'
p1218
atp1219
Rp1220
sS'00093-7772-01'
p1221
g1
((lp1222
g7
ag259
atp1223
Rp1224
sS'63304-0693-01'
p1225
g1
((lp1226
g7
aS'RX693'
p1227
atp1228
Rp1229
sS'00781-5185-01'
p1230
g1
((lp1231
g7
aS'GG'
p1232
aS'336'
p1233
aS'112'
p1234
atp1235
Rp1236
sS'00093-0012-98'
p1237
g1
((lp1238
g7
aS'93/12'
p1239
atp1240
Rp1241
sS'00013-5301-17'
p1242
g1
((lp1243
S'MYCO'
p1244
ag7
aS'Upjoh'
p1245
aS'a&'
p1246
aS'OBUTI'
p1247
aS'Pharmaci'
p1248
atp1249
Rp1250
sS'00555-0513-02'
p1251
g1
((lp1252
g7
aS'arr'
p1253
aS'513'
p1254
atp1255
Rp1256
sS'00093-4029-01'
p1257
g1
((lp1258
g7
aS'TEVA'
p1259
aS'4029'
p1260
atp1261
Rp1262
sS'00781-2020-05'
p1263
g1
((lp1264
S'GG'
p1265
ag7
aS'250'
p1266
aS'AMOX'
p1267
aS'848'
p1268
atp1269
Rp1270
sS'53489-0531-01'
p1271
g1
((lp1272
g7
aS'153'
p1273
atp1274
Rp1275
sS'00093-0757-01'
p1276
g1
((lp1277
g7
aS'93'
p1278
aS'757'
p1279
atp1280
Rp1281
sS'00591-5694-01'
p1282
g1
((lp1283
g45
ag691
ag7
atp1284
Rp1285
sS'00187-0844-01'
p1286
g1
((lp1287
S'0844'
p1288
aS'LEA'
p1289
aS'PF'
p1290
ag7
atp1291
Rp1292
sS'00093-5353-01'
p1293
g1
((lp1294
S'TV'
p1295
ag7
aS'A18'
p1296
atp1297
Rp1298
sS'50111-0470-01'
p1299
g1
((lp1300
g7
aS'41'
p1301
atp1302
Rp1303
sS'00054-2526-25'
p1304
g1
((lp1305
g7
aS'54'
p1306
aS'213'
p1307
atp1308
Rp1309
sS'00555-9025-42'
p1310
g1
((lp1311
g45
ag7
atp1312
Rp1313
sS'00093-0926-06'
p1314
g1
((lp1315
g7
aS'TEVA'
p1316
atp1317
Rp1318
sS'00093-4339-01'
p1319
g1
((lp1320
g7
aS'[4339'
p1321
aS'mg'
p1322
aS'10'
p1323
atp1324
Rp1325
sS'00378-6440-01'
p1326
g1
((lp1327
g7
ag333
ag34
atp1328
Rp1329
sS'00555-9010-58'
p1330
g1
((lp1331
g7
aS'949'
p1332
atp1333
Rp1334
sS'00093-1063-01'
p1335
g1
((lp1336
g7
aS'93'
p1337
aS'63'
p1338
atp1339
Rp1340
sS'00093-1026-06'
p1341
g1
((lp1342
g7
aS'1026'
p1343
atp1344
Rp1345
sS'00093-7370-01'
p1346
g1
((lp1347
g7
aS'7370'
p1348
ag109
aS'TEVA'
p1349
ag333
aS'93'
p1350
atp1351
Rp1352
sS'00555-0834-02'
p1353
g1
((lp1354
g7
ag146
atp1355
Rp1356
sS'00093-0756-01'
p1357
g1
((lp1358
g7
ag45
aS'93'
p1359
aS'756'
p1360
ag47
atp1361
Rp1362
sS'00093-0810-01'
p1363
g1
((lp1364
g7
aS'TEVA'
p1365
aS'0810'
p1366
aS'10mg'
p1367
atp1368
Rp1369
sS'00093-3167-53'
p1370
g1
((lp1371
g7
aS'3167'
p1372
aS'\xd0\x90'
p1373
aS'\xd0\xa2\xd0\x95'
p1374
aS'93'
p1375
atp1376
Rp1377
sS'00173-0759-60'
p1378
g1
((lp1379
S'XR'
p1380
ag7
atp1381
Rp1382
sS'50111-0852-01'
p1383
g1
((lp1384
g7
aS'PA2120'
p1385
atp1386
Rp1387
sS'00093-4356-01'
p1388
g1
((lp1389
g7
aS'4356'
p1390
aS'20'
p1391
aS'mg'
p1392
atp1393
Rp1394
sS'65597-0701-18'
p1395
g1
((lp1396
S'CO1'
p1397
ag7
aS'SANKYO'
p1398
atp1399
Rp1400
sS'00186-0520-60'
p1401
g1
((lp1402
S'500/20'
p1403
ag7
atp1404
Rp1405
sS'00555-0633-02'
p1406
g1
((lp1407
g7
aS'633'
p1408
aS'barr'
p1409
atp1410
Rp1411
sS'00781-2054-01'
p1412
g1
((lp1413
g7
aS'624'
p1414
atp1415
Rp1416
sS'00054-0109-25'
p1417
g1
((lp1418
g7
aS'54'
p1419
aS'602'
p1420
atp1421
Rp1422
sS'50458-0551-01'
p1423
g1
((lp1424
g7
aS'PAL6'
p1425
atp1426
Rp1427
sS'00555-1022-01'
p1428
g1
((lp1429
S'24'
p1430
ag7
aS'amg'
p1431
aS'1022'
p1432
atp1433
Rp1434
sS'00555-0324-02'
p1435
g1
((lp1436
g7
aS'100'
p1437
aS'barr'
p1438
aS'324'
p1439
atp1440
Rp1441
sS'00093-5504-56'
p1442
g1
((lp1443
g7
aS'TEVA'
p1444
aS'5504'
p1445
atp1446
Rp1447
sS'00074-3040-11'
p1448
g1
((lp1449
g7
aS'0)'
p1450
atp1451
Rp1452
sS'59762-5018-01'
p1453
g1
((lp1454
g7
aS'200'
p1455
aS'FLZ'
p1456
atp1457
Rp1458
sS'00093-2929-01'
p1459
g1
((lp1460
S'2929'
p1461
ag7
atp1462
Rp1463
sS'59762-2002-01'
p1464
g1
((lp1465
S'2002'
p1466
ag7
atp1467
Rp1468
sS'00555-0980-37'
p1469
g1
((lp1470
g7
aS'980'
p1471
aS'\xd1\x8c'
p1472
atp1473
Rp1474
sS'00781-1787-01'
p1475
g1
((lp1476
g7
aS'738'
p1477
atp1478
Rp1479
sS'00172-7310-46'
p1480
g1
((lp1481
g7
aS'25mg'
p1482
atp1483
Rp1484
sS'47335-0894-81'
p1485
g1
((lp1486
g7
aS'894'
p1487
atp1488
Rp1489
sS'23635-0108-20'
p1490
g1
((lp1491
g7
aS'10/8'
p1492
aS'HP/CP'
p1493
atp1494
Rp1495
sS'00603-3856-21'
p1496
g1
((lp1497
S'357'
p1498
ag7
atp1499
Rp1500
sS'00145-0091-25'
p1501
g1
((lp1502
g7
aS'25mg'
p1503
atp1504
Rp1505
sS'00781-1146-01'
p1506
g1
((lp1507
S'02'
p1508
ag7
atp1509
Rp1510
sS'00555-9026-58'
p1511
g1
((lp1512
g45
ag7
aS'377'
p1513
atp1514
Rp1515
sS'00093-0752-01'
p1516
g1
((lp1517
g7
aS'VA'
p1518
aS'E'
p1519
aS'/52'
p1520
atp1521
Rp1522
sS'00172-7311-46'
p1523
g1
((lp1524
g7
aS'mg'
p1525
aS'50'
p1526
atp1527
Rp1528
sS'00093-1005-01'
p1529
g1
((lp1530
g7
aS'93-5'
p1531
atp1532
Rp1533
sS'00093-7795-06'
p1534
g1
((lp1535
g7
aS'TV/7795'
p1536
atp1537
Rp1538
sS'00093-5142-56'
p1539
g1
((lp1540
g7
aS'93'
p1541
aS'142'
p1542
atp1543
Rp1544
sS'00093-0811-01'
p1545
g1
((lp1546
g45
ag7
ag259
ag109
ag189
atp1547
Rp1548
sS'00093-7338-01'
p1549
g1
((lp1550
g7
aS'93'
p1551
aS'7338'
p1552
atp1553
Rp1554
sS'00069-2600-66'
p1555
g1
((lp1556
S'PFIZER'
p1557
ag7
aS'260'
p1558
aS'PROCARDIA'
p1559
atp1560
Rp1561
sS'00555-0590-01'
p1562
g1
((lp1563
g7
aS'590'
p1564
aS'arr'
p1565
aS'mg'
p1566
ag691
aS'400'
p1567
atp1568
Rp1569
sS'00555-0882-02'
p1570
g1
((lp1571
g7
aS'882'
p1572
aS'barr'
p1573
atp1574
Rp1575
sS'00378-0310-01'
p1576
g1
((lp1577
g7
ag47
atp1578
Rp1579
sS'00093-5112-98'
p1580
g1
((lp1581
S'120'
p1582
ag7
ag189
aS'BVF'
p1583
ag34
atp1584
Rp1585
sS'00093-0149-01'
p1586
g1
((lp1587
g45
ag7
aS'14'
p1588
atp1589
Rp1590
sS'00781-5046-01'
p1591
g1
((lp1592
g7
aS'165'
p1593
atp1594
Rp1595
sS'00555-0859-02'
p1596
g1
((lp1597
g7
ag24
ag47
aS'59'
p1598
atp1599
Rp1600
sS'53489-0648-01'
p1601
g1
((lp1602
g7
aS'MUTUAL'
p1603
aS'866'
p1604
atp1605
Rp1606
sS'00832-1080-00'
p1607
g1
((lp1608
S'832'
p1609
ag7
aS'BMOS'
p1610
atp1611
Rp1612
sS'51285-0691-02'
p1613
g1
((lp1614
g7
aS'P'
p1615
aS'O'
p1616
atp1617
Rp1618
sS'00186-5040-31'
p1619
g1
((lp1620
g7
ag691
aS'mg'
p1621
aS'EXIU'
p1622
aS'40'
p1623
atp1624
Rp1625
sS'00093-3129-01'
p1626
g1
((lp1627
g7
aS'93'
p1628
aS'3129'
p1629
atp1630
Rp1631
sS'50111-0901-01'
p1632
g1
((lp1633
S'PA1000'
p1634
ag7
atp1635
Rp1636
sS'49230-0640-21'
p1637
g1
((lp1638
g7
aS'6wL99'
p1639
atp1640
Rp1641
sS'00093-1060-01'
p1642
g1
((lp1643
g7
aS'1060'
p1644
aS'93'
p1645
atp1646
Rp1647
sS'59762-2858-01'
p1648
g1
((lp1649
g7
aS'2858'
p1650
atp1651
Rp1652
sS'00172-5032-60'
p1653
g1
((lp1654
g7
aS'20/25'
p1655
atp1656
Rp1657
sS'00093-7335-06'
p1658
g1
((lp1659
g7
aS'TEVA'
p1660
aS'7335'
p1661
atp1662
Rp1663
sS'00093-7443-56'
p1664
g1
((lp1665
g7
aS'TEVA'
p1666
aS'7443'
p1667
atp1668
Rp1669
sS'51285-0539-02'
p1670
g1
((lp1671
g7
aS'719'
p1672
aS'OP'
p1673
atp1674
Rp1675
sS'00074-3020-11'
p1676
g1
((lp1677
S'SOLVAY'
p1678
ag7
aS'5150'
p1679
atp1680
Rp1681
sS'00173-0565-04'
p1682
g1
((lp1683
g109
ag7
aS'VALTREX'
p1684
aS'gram'
p1685
atp1686
Rp1687
sS'00591-5554-01'
p1688
g1
((lp1689
g7
aS'1O'
p1690
atp1691
Rp1692
sS'00002-3239-30'
p1693
g1
((lp1694
S'60'
p1695
aS'323'
p1696
aS'mg'
p1697
aS'$60'
p1698
ag7
atp1699
Rp1700
sS'00093-4235-01'
p1701
g1
((lp1702
g7
aS'4235'
p1703
atp1704
Rp1705
sS'51672-4032-01'
p1706
g1
((lp1707
g7
aS'WARFARI'
p1708
aS'ARO'
p1709
atp1710
Rp1711
sS'00555-0588-01'
p1712
g1
((lp1713
g7
aS'200'
p1714
aS'arr'
p1715
aS'mg'
p1716
aS'588'
p1717
atp1718
Rp1719
sS'60505-0065-00'
p1720
g1
((lp1721
g7
aS'APO'
p1722
aS'020'
p1723
atp1724
Rp1725
sS'60505-0065-01'
p1726
g1
((lp1727
g7
aS'APO'
p1728
aS'020'
p1729
atp1730
Rp1731
sS'00093-4234-01'
p1732
g1
((lp1733
g7
aS'4234'
p1734
atp1735
Rp1736
sS'00093-5505-56'
p1737
g1
((lp1738
g7
aS'TEVA'
p1739
aS'5505'
p1740
atp1741
Rp1742
sS'00228-2550-06'
p1743
g1
((lp1744
g7
aS'550'
p1745
atp1746
Rp1747
sS'00172-5412-79'
p1748
g1
((lp1749
g7
aS'%150'
p1750
ag189
aS'412'
p1751
atp1752
Rp1753
sS'00071-1017-68'
p1754
g1
((lp1755
S'PGN'
p1756
aS'Pfirer'
p1757
ag7
aS'200'
p1758
atp1759
Rp1760
sS'00555-9034-58'
p1761
g1
((lp1762
g7
aS'735'
p1763
atp1764
Rp1765
sS'16110-0075-01'
p1766
g1
((lp1767
g7
aS'ONOD'
p1768
aS'075'
p1769
aS'75'
p1770
atp1771
Rp1772
sS'00173-0556-02'
p1773
g1
((lp1774
g7
aS'150'
p1775
aS'ZYBAN'
p1776
atp1777
Rp1778
sS'00093-5141-56'
p1779
g1
((lp1780
g7
aS'93'
p1781
atp1782
Rp1783
sS'52544-0291-28'
p1784
g1
((lp1785
g7
aS'50/30'
p1786
atp1787
Rp1788
sS'00093-7381-01'
p1789
g1
((lp1790
g7
aS'738'
p1791
atp1792
Rp1793
sS'00093-5140-56'
p1794
g1
((lp1795
g7
aS'93'
p1796
aS'51440'
p1797
atp1798
Rp1799
sS'00093-7385-56'
p1800
g1
((lp1801
g7
aS'93'
p1802
aS'7385'
p1803
atp1804
Rp1805
sS'53014-0404-10'
p1806
g1
((lp1807
g7
ag691
aS'SEMPRE'
p1808
ag333
atp1809
Rp1810
sS'00172-2083-60'
p1811
g1
((lp1812
g7
aS'2083'
p1813
atp1814
Rp1815
sS'51672-4029-01'
p1816
g1
((lp1817
g7
aS'WARFARI'
p1818
aS'TARO'
p1819
atp1820
Rp1821
sS'00173-0755-00'
p1822
g1
((lp1823
S'xR'
p1824
ag7
atp1825
Rp1826
s.