ccollections
defaultdict
p0
(c__builtin__
set
p1
tp2
Rp3
S'00093-5119-98'
p4
g1
((lp5
S'300'
p6
aS''
p7
aS'BVF'
p8
aS'BVE'
p9
atp10
Rp11
sS'00093-2203-01'
p12
g1
((lp13
g7
aS'EVI'
p14
atp15
Rp16
sS'50111-0393-01'
p17
g1
((lp18
g7
aS'\xe3\x81\xa811'
p19
atp20
Rp21
sS'52544-0152-30'
p22
g1
((lp23
g7
aS'Go'
p24
aS'WATSO'
p25
aS'8 mg'
p26
atp27
Rp28
sS'00093-5117-98'
p29
g1
((lp30
g7
aS'180'
p31
aS'BVF'
p32
aS'6'
p33
atp34
Rp35
sS'29033-0020-12'
p36
g1
((lp37
g7
aS'200'
p38
aS'NC'
p39
atp40
Rp41
sS'00093-7326-01'
p42
g1
((lp43
g7
aS'9'
p44
aS'7326'
p45
aS'3'
p46
atp47
Rp48
sS'00378-0143-01'
p49
g1
((lp50
g7
aS'MYLAN MYLAN'
p51
aS'143'
p52
atp53
Rp54
sS'00555-0832-02'
p55
g1
((lp56
g7
aS'832 21/2'
p57
atp58
Rp59
sS'00603-5771-21'
p60
g1
((lp61
g7
aS'8'
p62
atp63
Rp64
sS'00002-3238-30'
p65
g1
((lp66
g7
aS'Sy18 mg'
p67
aS'3238'
p68
atp69
Rp70
sS'00555-1057-86'
p71
g1
((lp72
g7
aS'barr 936'
p73
atp74
Rp75
sS'00555-9009-42'
p76
g1
((lp77
g7
aS'949'
p78
atp79
Rp80
sS'00781-2053-01'
p81
g1
((lp82
S'623'
p83
ag7
atp84
Rp85
sS'00603-5165-32'
p86
g1
((lp87
g7
aS'5011'
p88
atp89
Rp90
sS'51672-4033-01'
p91
g1
((lp92
g7
aS'WARFARIA'
p93
aS'TARO'
p94
atp95
Rp96
sS'00173-0933-08'
p97
g1
((lp98
g7
aS'500 mg'
p99
aS'VALTREX'
p100
atp101
Rp102
sS'53489-0384-01'
p103
g1
((lp104
S'1'
p105
aS'18'
p106
ag7
atp107
Rp108
sS'00074-9189-90'
p109
g1
((lp110
g7
aS'135'
p111
atp112
Rp113
sS'00093-2270-34'
p114
g1
((lp115
g7
aS'2270'
p116
atp117
Rp118
sS'00093-0771-98'
p119
g1
((lp120
g7
aS'EVA'
p121
atp122
Rp123
sS'00093-7796-06'
p124
g1
((lp125
g7
aS'TV/7796'
p126
atp127
Rp128
sS'00093-0148-01'
p129
g1
((lp130
g7
aS'14 8'
p131
atp132
Rp133
sS'00591-2473-19'
p134
g1
((lp135
g7
aS'2233'
p136
atp137
Rp138
sS'00169-0081-81'
p139
g1
((lp140
g7
aS'\xe3\x83\x90D'
p141
aS'7'
p142
atp143
Rp144
sS'00093-0028-01'
p145
g1
((lp146
g7
aS'28'
p147
atp148
Rp149
sS'65580-0304-03'
p150
g1
((lp151
g7
aS'304'
p152
aS'OS'
p153
atp154
Rp155
sS'00591-0302-01'
p156
g1
((lp157
g7
aS'802'
p158
atp159
Rp160
sS'00093-4030-01'
p161
g1
((lp162
g7
aS'TEVA 4030'
p163
aS'4030 4030'
p164
atp165
Rp166
sS'00093-7442-56'
p167
g1
((lp168
g7
aS'TEVA7442'
p169
atp170
Rp171
sS'00093-7178-01'
p172
g1
((lp173
g7
aS'7178'
p174
atp175
Rp176
sS'00093-7380-01'
p177
g1
((lp178
g7
aS'7380'
p179
atp180
Rp181
sS'63459-0700-60'
p182
g1
((lp183
g7
ag44
aS'5 mg'
p184
aS'5'
p185
aS'halon'
p186
atp187
Rp188
sS'00228-2551-06'
p189
g1
((lp190
g7
aS'551'
p191
atp192
Rp193
sS'50111-0326-01'
p194
g1
((lp195
g7
aS'326'
p196
aS'PLIVA'
p197
atp198
Rp199
sS'00093-7350-56'
p200
g1
((lp201
g7
aS'7350'
p202
aS'93'
p203
atp204
Rp205
sS'50111-0647-01'
p206
g1
((lp207
g7
aS'\xe5\xaf\xb8'
p208
atp209
Rp210
sS'00149-0007-05'
p211
g1
((lp212
g7
aS'540'
p213
aS'N2 00'
p214
atp215
Rp216
sS'62559-1507-00'
p217
g1
((lp218
g7
aS'1507'
p219
atp220
Rp221
sS'00781-1506-01'
p222
g1
((lp223
g7
aS'06'
p224
aS'GC'
p225
atp226
Rp227
sS'00555-1056-86'
p228
g1
((lp229
S'barr 454'
p230
ag7
atp231
Rp232
sS'00093-3123-01'
p233
g1
((lp234
g7
aS'TEVA 3123'
p235
atp236
Rp237
sS'66213-0421-10'
p238
g1
((lp239
S'421'
p240
ag7
atp241
Rp242
sS'00378-3482-01'
p243
g1
((lp244
g7
aS'482'
p245
atp246
Rp247
sS'00173-0758-60'
p248
g1
((lp249
S'XR'
p250
ag7
aS'MIC'
p251
aS'2'
p252
aS'CTA'
p253
atp254
Rp255
sS'51672-4030-01'
p256
g1
((lp257
g7
aS'WAREARIR'
p258
aS'ARO'
p259
atp260
Rp261
sS'00093-2075-01'
p262
g1
((lp263
g7
aS'TEVA 8815'
p264
atp265
Rp266
sS'00555-0925-02'
p267
g1
((lp268
g7
aS'barn'
p269
atp270
Rp271
sS'00173-0562-00'
p272
g1
((lp273
g7
aS'GXCE'
p274
atp275
Rp276
sS'60505-1308-01'
p277
g1
((lp278
g7
aS'APO'
p279
atp280
Rp281
sS'50111-0851-01'
p282
g1
((lp283
g7
aS'PA46'
p284
atp285
Rp286
sS'00173-0785-01'
p287
g1
((lp288
g7
aS'70'
p289
atp290
Rp291
sS'50458-0925-50'
p292
g1
((lp293
S'LEYAQUIN'
p294
ag7
atp295
Rp296
sS'00093-4236-01'
p297
g1
((lp298
g7
aS'236'
p299
aS'23'
p300
atp301
Rp302
sS'00378-2537-01'
p303
g1
((lp304
g7
aS'MYLAN MYLAN'
p305
aS'37'
p306
aS'2537'
p307
atp308
Rp309
sS'65580-0303-03'
p310
g1
((lp311
g7
aS'303'
p312
aS'OS'
p313
atp314
Rp315
sS'00555-0635-09'
p316
g1
((lp317
g7
aS'barr 635'
p318
atp319
Rp320
sS'59762-2003-01'
p321
g1
((lp322
g7
aS'4'
p323
aS'2003 2003'
p324
atp325
Rp326
sS'60505-0146-00'
p327
g1
((lp328
g7
aS'APO 040'
p329
atp330
Rp331
sS'00093-4232-01'
p332
g1
((lp333
g7
aS'L1232'
p334
atp335
Rp336
sS'00093-7227-72'
p337
g1
((lp338
g7
aS'93'
p339
aS'7227'
p340
atp341
Rp342
sS'00093-7437-01'
p343
g1
((lp344
g7
aS'93'
p345
aS'7437 7437'
p346
atp347
Rp348
sS'00093-7383-01'
p349
g1
((lp350
g7
aS'7383'
p351
atp352
Rp353
sS'58468-0130-01'
p354
g1
((lp355
g7
aS'800'
p356
aS'RENVELA'
p357
atp358
Rp359
sS'50111-0325-01'
p360
g1
((lp361
g7
aS'325'
p362
aS'PLIVA'
p363
atp364
Rp365
sS'51285-0692-02'
p366
g1
((lp367
g7
aS'/00'
p368
atp369
Rp370
sS'50111-0468-01'
p371
g1
((lp372
g44
ag7
ag33
atp373
Rp374
sS'00093-3160-06'
p375
g1
((lp376
g7
aS'3160 3160'
p377
aS'93'
p378
atp379
Rp380
sS'00093-0311-01'
p381
g1
((lp382
g7
aS'93'
p383
aS'311'
p384
atp385
Rp386
sS'54092-0517-02'
p387
g1
((lp388
g7
aS'3MG'
p389
aS'503'
p390
atp391
Rp392
sS'00378-3475-01'
p393
g1
((lp394
g7
aS'475'
p395
atp396
Rp397
sS'00093-7198-56'
p398
g1
((lp399
g7
aS'TEVA 7198'
p400
atp401
Rp402
sS'68180-0480-01'
p403
g1
((lp404
g7
aS'C04'
p405
atp406
Rp407
sS'00093-0787-01'
p408
g1
((lp409
g7
aS't VA'
p410
atp411
Rp412
sS'00172-4358-46'
p413
g1
((lp414
S'300'
p415
ag7
aS'358'
p416
atp417
Rp418
sS'51285-0082-97'
p419
g1
((lp420
g7
aS'978'
p421
atp422
Rp423
sS'00093-3165-01'
p424
g1
((lp425
S'TEVA 3165'
p426
ag7
aS'93'
p427
atp428
Rp429
sS'51285-0754-02'
p430
g1
((lp431
g7
aS'A5'
p432
aS'17'
p433
atp434
Rp435
sS'00555-1020-01'
p436
g1
((lp437
g7
aS'8 mg'
p438
aS'barr 1020'
p439
atp440
Rp441
sS'00527-1413-01'
p442
g1
((lp443
g7
aS'LCI'
p444
atp445
Rp446
sS'00002-3250-30'
p447
g1
((lp448
S'3250'
p449
ag7
aS'828 80 mg'
p450
atp451
Rp452
sS'00093-8940-01'
p453
g1
((lp454
S'940 200'
p455
ag7
atp456
Rp457
sS'00555-0066-02'
p458
g1
((lp459
g7
aS'C) \xe3\x81\xae1'
p460
aS'990'
p461
atp462
Rp463
sS'00002-3228-30'
p464
g1
((lp465
g7
aS'Aeay25 mg'
p466
aS'3228'
p467
atp468
Rp469
sS'25010-0205-15'
p470
g1
((lp471
S'ATON\xc4\xb0 2.65'
p472
ag7
atp473
Rp474
sS'00093-7336-06'
p475
g1
((lp476
g7
aS'TEVA 7336'
p477
atp478
Rp479
sS'00378-5123-01'
p480
g1
((lp481
g7
aS'S23'
p482
atp483
Rp484
sS'00078-0574-15'
p485
g1
((lp486
g7
aS'N VR'
p487
atp488
Rp489
sS'00378-3205-01'
p490
g1
((lp491
S'MYLANMYLAN'
p492
aS'3205 3205'
p493
ag7
atp494
Rp495
sS'00093-0924-01'
p496
g1
((lp497
g7
aS'092'
p498
atp499
Rp500
sS'00172-5034-60'
p501
g1
((lp502
S'20/12.5'
p503
ag7
atp504
Rp505
sS'00004-0800-85'
p506
g1
((lp507
g7
aS'ROCHE 75 mg'
p508
atp509
Rp510
sS'50111-0328-01'
p511
g1
((lp512
g7
ag252
atp513
Rp514
sS'00781-1191-01'
p515
g1
((lp516
g7
aS'cor'
p517
atp518
Rp519
sS'00093-3127-01'
p520
g1
((lp521
g7
aS'3127 3127'
p522
aS'93 93'
p523
atp524
Rp525
sS'59762-5033-02'
p526
g1
((lp527
S'110\xe9\xbe\x9b'
p528
aS'10'
p529
ag7
atp530
Rp531
sS'00093-5711-01'
p532
g1
((lp533
g7
aS'500'
p534
atp535
Rp536
sS'00777-3105-02'
p537
g1
((lp538
g7
aS'3105'
p539
aS'20 mg'
p540
aS'DISTA PROZAC'
p541
atp542
Rp543
sS'00054-4182-25'
p544
g1
((lp545
g7
aS'LA CN'
p546
ag185
atp547
Rp548
sS'68968-3500-01'
p549
g1
((lp550
S'NVN2'
p551
ag7
atp552
Rp553
sS'00093-7254-01'
p554
g1
((lp555
g7
ag185
atp556
Rp557
sS'00555-0886-02'
p558
g1
((lp559
g7
aS'886'
p560
atp561
Rp562
sS'00093-4336-01'
p563
g1
((lp564
S'4336'
p565
ag7
aS'1 mg'
p566
atp567
Rp568
sS'00003-4222-16'
p569
g1
((lp570
g7
aS'2.5/1000'
p571
aS'4222'
p572
atp573
Rp574
sS'00172-7312-46'
p575
g1
((lp576
g7
aS'100 mg'
p577
atp578
Rp579
sS'00555-0808-02'
p580
g1
((lp581
g7
aS'barr 808'
p582
atp583
Rp584
sS'65580-0302-03'
p585
g1
((lp586
g7
aS'302'
p587
aS'os'
p588
atp589
Rp590
sS'00781-2201-01'
p591
g1
((lp592
g7
aS'531'
p593
atp594
Rp595
sS'00555-0634-02'
p596
g1
((lp597
g7
aS'barr 634'
p598
atp599
Rp600
sS'65197-0002-01'
p601
g1
((lp602
S'DYRENIUNM'
p603
ag7
aS'50 mg WPC 002'
p604
aS'DYRENIUM'
p605
atp606
Rp607
sS'00093-7438-01'
p608
g1
((lp609
g7
aS'7438 7438'
p610
aS'93'
p611
atp612
Rp613
sS'00093-2272-34'
p614
g1
((lp615
g7
aS'2212'
p616
aS'93'
p617
atp618
Rp619
sS'00781-5189-01'
p620
g1
((lp621
S'GG 310'
p622
ag7
aS'200'
p623
atp624
Rp625
sS'54092-0189-81'
p626
g1
((lp627
g7
aS'S429'
p628
aS'2010'
p629
aS'250 mg'
p630
atp631
Rp632
sS'00093-7466-98'
p633
g1
((lp634
g7
aS'EVI'
p635
atp636
Rp637
sS'00093-4069-01'
p638
g1
((lp639
g7
aS'TEVA 4069'
p640
atp641
Rp642
sS'59762-2004-01'
p643
g1
((lp644
g7
aS'2004'
p645
atp646
Rp647
sS'00555-0733-02'
p648
g1
((lp649
g7
aS'100'
p650
atp651
Rp652
sS'00093-0657-01'
p653
g1
((lp654
g7
aS'0'
p655
ag46
aS'93'
p656
aS'657'
p657
atp658
Rp659
sS'00093-3193-01'
p660
g1
((lp661
g7
aS'3193 3193'
p662
aS'93 93'
p663
atp664
Rp665
sS'00093-2080-01'
p666
g1
((lp667
g7
aS'TEVA 2080'
p668
atp669
Rp670
sS'00093-0658-01'
p671
g1
((lp672
g7
aS'65 8'
p673
atp674
Rp675
sS'00093-1044-01'
p676
g1
((lp677
S'0444'
p678
ag7
atp679
Rp680
sS'00093-7334-01'
p681
g1
((lp682
g7
aS'TEVA 7334'
p683
atp684
Rp685
sS'00555-1055-86'
p686
g1
((lp687
g7
aS'barr 935'
p688
atp689
Rp690
sS'51285-0538-02'
p691
g1
((lp692
g7
aS'OP 718'
p693
atp694
Rp695
sS'00093-3125-01'
p696
g1
((lp697
g7
aS'TEVA 3125'
p698
atp699
Rp700
sS'00555-0302-02'
p701
g1
((lp702
g7
aS'302'
p703
aS'barr'
p704
aS'50'
p705
atp706
Rp707
sS'00093-3195-01'
p708
g1
((lp709
g7
aS'TEVA 3195'
p710
atp711
Rp712
sS'00037-2250-10'
p713
g1
((lp714
S'SOMA'
p715
ag7
atp716
Rp717
sS'49884-0652-01'
p718
g1
((lp719
g7
aS'652'
p720
atp721
Rp722
sS'00093-4067-01'
p723
g1
((lp724
g7
aS'TEVA 4067'
p725
atp726
Rp727
sS'50111-0324-01'
p728
g1
((lp729
g7
aS'1.1 IV\xe2\x96\xb3'
p730
atp731
Rp732
sS'00093-4068-01'
p733
g1
((lp734
g7
aS'TEVA 4068'
p735
atp736
Rp737
sS'64720-0323-10'
p738
g1
((lp739
g7
aS'cor'
p740
aS'323 323'
p741
atp742
Rp743
sS'00078-0572-15'
p744
g1
((lp745
g7
aS'HDU'
p746
aS'N V R'
p747
atp748
Rp749
sS'00093-7202-98'
p750
g1
((lp751
g7
aS'7202'
p752
atp753
Rp754
sS'00093-3147-01'
p755
g1
((lp756
g7
aS'93'
p757
aS'3147 3147'
p758
aS'TEVA 317'
p759
atp760
Rp761
sS'00555-9012-58'
p762
g1
((lp763
g44
ag7
atp764
Rp765
sS'00555-0071-01'
p766
g1
((lp767
g7
aS'071 30O'
p768
atp769
Rp770
sS'00093-5118-98'
p771
g1
((lp772
g7
aS'240 240'
p773
aS'BVF BVF'
p774
atp775
Rp776
sS'10144-0606-15'
p777
g1
((lp778
g7
aS'JN9'
p779
atp780
Rp781
sS'00093-0928-06'
p782
g1
((lp783
g7
aS'IEVA'
p784
atp785
Rp786
sS'64764-0805-30'
p787
g1
((lp788
g7
aS'\xe3\x82\x938,'
p789
atp790
Rp791
sS'00093-7671-01'
p792
g1
((lp793
S'TEVA 7671'
p794
ag7
atp795
Rp796
sS'00093-3196-53'
p797
g1
((lp798
g7
aS'3196'
p799
aS'93'
p800
atp801
Rp802
sS'00093-7325-01'
p803
g1
((lp804
g7
aS'7325'
p805
atp806
Rp807
sS'00173-0135-55'
p808
g1
((lp809
g7
aS'BUTR'
p810
aS'SA'
p811
aS'150'
p812
atp813
Rp814
sS'00023-9350-07'
p815
g1
((lp816
g7
aS'SAN 60'
p817
atp818
Rp819
sS'00378-3495-01'
p820
g1
((lp821
g7
aS'495'
p822
atp823
Rp824
sS'00093-3002-56'
p825
g1
((lp826
g7
aS'93'
p827
aS'3002'
p828
atp829
Rp830
sS'00781-5187-01'
p831
g1
((lp832
g7
aS'GG 338'
p833
atp834
Rp835
sS'00555-0059-02'
p836
g1
((lp837
g7
aS'barr o59e'
p838
atp839
Rp840
sS'00093-5256-68'
p841
g1
((lp842
g7
aS'5256 5256'
p843
aS'TEVA 5256'
p844
aS'93 93'
p845
atp846
Rp847
sS'00228-2779-11'
p848
g1
((lp849
g7
aS'2779'
p850
aS'-R 2779'
p851
atp852
Rp853
sS'10144-0602-15'
p854
g1
((lp855
g7
aS'JNZ'
p856
atp857
Rp858
sS'00093-1052-01'
p859
g1
((lp860
g7
aS'1052'
p861
atp862
Rp863
sS'00781-5186-01'
p864
g1
((lp865
g7
aS'GG 337'
p866
atp867
Rp868
sS'00093-3109-53'
p869
g1
((lp870
g7
aS'TEVA 3109'
p871
atp872
Rp873
sS'00555-1021-01'
p874
g1
((lp875
g7
aS'16 mg1021'
p876
aS'barr'
p877
atp878
Rp879
sS'00832-1024-00'
p880
g1
((lp881
S'832'
p882
ag7
atp883
Rp884
sS'00093-7670-01'
p885
g1
((lp886
g7
aS'TEVA 7670'
p887
atp888
Rp889
sS'68012-0104-30'
p890
g1
((lp891
g7
aS'40'
p892
atp893
Rp894
sS'00555-1883-02'
p895
g1
((lp896
g7
aS'\xd0\xa0\xd0\x9083'
p897
atp898
Rp899
sS'00555-0589-01'
p900
g1
((lp901
g44
ag7
aS'rm 9'
p902
aS'a0 8'
p903
atp904
Rp905
sS'00378-1010-01'
p906
g1
((lp907
g7
aS'MYLAN'
p908
aS'1010'
p909
aS'1010 MYLAN'
p910
atp911
Rp912
sS'00378-0183-01'
p913
g1
((lp914
g7
aS'20'
p915
atp916
Rp917
sS'00781-5181-01'
p918
g1
((lp919
g7
aS'6G 33'
p920
atp921
Rp922
sS'00591-0388-01'
p923
g1
((lp924
g7
aS'WAISON'
p925
atp926
Rp927
sS'00093-7386-56'
p928
g1
((lp929
g7
aS'93'
p930
aS'7386'
p931
atp932
Rp933
sS'00009-7663-04'
p934
g1
((lp935
g7
aS'7663'
p936
atp937
Rp938
sS'00093-7270-98'
p939
g1
((lp940
g7
ag252
atp941
Rp942
sS'47335-0580-81'
p943
g1
((lp944
g7
aS'124'
p945
atp946
Rp947
sS'00093-4338-01'
p948
g1
((lp949
g7
aS'5 mg'
p950
aS'4338'
p951
atp952
Rp953
sS'00093-0576-06'
p954
g1
((lp955
g44
ag7
ag46
aS'576'
p956
aS'TEVA'
p957
atp958
Rp959
sS'66582-0313-31'
p960
g1
((lp961
g7
ag46
atp962
Rp963
sS'00093-5506-56'
p964
g1
((lp965
g7
aS'TEVA 5506'
p966
atp967
Rp968
sS'51672-4016-01'
p969
g1
((lp970
g7
aS'ETO 200 MG'
p971
atp972
Rp973
sS'00555-0323-02'
p974
g1
((lp975
g7
aS'barr'
p976
aS'323 25'
p977
atp978
Rp979
sS'00093-4741-01'
p980
g1
((lp981
g7
ag46
atp982
Rp983
sS'00002-3251-30'
p984
g1
((lp985
g7
aS'en,100 mg'
p986
aS'325'
p987
atp988
Rp989
sS'65162-0212-11'
p990
g1
((lp991
g7
aS'IP 212'
p992
atp993
Rp994
sS'00781-5183-01'
p995
g1
((lp996
g7
aS'GG 331'
p997
atp998
Rp999
sS'00093-7436-01'
p1000
g1
((lp1001
g7
aS'03'
p1002
aS'93'
p1003
aS'7436 7436'
p1004
atp1005
Rp1006
sS'00093-5507-56'
p1007
g1
((lp1008
g7
aS'TEVA 5507'
p1009
atp1010
Rp1011
sS'00145-3817-03'
p1012
g1
((lp1013
S'1.17.5m'
p1014
ag7
atp1015
Rp1016
sS'00555-0874-02'
p1017
g1
((lp1018
g7
aS'art'
p1019
atp1020
Rp1021
sS'00172-5413-46'
p1022
g1
((lp1023
g7
aS'5 413'
p1024
aS'290'
p1025
atp1026
Rp1027
sS'00093-0054-01'
p1028
g1
((lp1029
g7
aS'EVA'
p1030
atp1031
Rp1032
sS'00555-9016-58'
p1033
g1
((lp1034
g7
aS'987'
p1035
atp1036
Rp1037
sS'00591-3210-60'
p1038
g1
((lp1039
g7
aS'WATSON'
p1040
aS'3210'
p1041
atp1042
Rp1043
sS'41616-0759-83'
p1044
g1
((lp1045
g7
aS'759'
p1046
atp1047
Rp1048
sS'59148-0006-13'
p1049
g1
((lp1050
g7
aS'006'
p1051
atp1052
Rp1053
sS'00093-3171-01'
p1054
g1
((lp1055
g7
aS'93 93'
p1056
aS'TEVA 3171'
p1057
atp1058
Rp1059
sS'00172-4960-58'
p1060
g1
((lp1061
g7
aS'096t'
p1062
atp1063
Rp1064
sS'43386-0660-24'
p1065
g1
((lp1066
S'300'
p1067
ag7
aS'Novel'
p1068
atp1069
Rp1070
sS'00002-3229-30'
p1071
g1
((lp1072
g7
aS'3229'
p1073
aS'Sen40 mg'
p1074
atp1075
Rp1076
sS'00310-0282-60'
p1077
g1
((lp1078
g7
aS'200'
p1079
atp1080
Rp1081
sS'00555-0869-02'
p1082
g1
((lp1083
g7
aS'869 2'
p1084
atp1085
Rp1086
sS'00074-1973-54'
p1087
g1
((lp1088
g7
aS'VICODN'
p1089
atp1090
Rp1091
sS'00093-4404-01'
p1092
g1
((lp1093
g7
aS'50'
p1094
atp1095
Rp1096
sS'59762-5021-01'
p1097
g1
((lp1098
g7
aS'020'
p1099
atp1100
Rp1101
sS'47781-0307-01'
p1102
g1
((lp1103
g7
aS'50 mg'
p1104
aS'MACRODAN'
p1105
aS'2427-28'
p1106
atp1107
Rp1108
sS'00093-0813-01'
p1109
g1
((lp1110
g7
aS'TEVA 0813'
p1111
ag252
ag185
ag142
ag44
aS'75mg'
p1112
atp1113
Rp1114
sS'00143-1257-01'
p1115
g1
((lp1116
g7
aS'257'
p1117
atp1118
Rp1119
sS'00093-4405-01'
p1120
g1
((lp1121
g7
aS'200'
p1122
atp1123
Rp1124
sS'00071-1015-68'
p1125
g1
((lp1126
S'PGN'
p1127
ag7
aS'100'
p1128
aS'Pizer PG N'
p1129
atp1130
Rp1131
sS'00093-1024-06'
p1132
g1
((lp1133
g7
aS'O2L'
p1134
atp1135
Rp1136
sS'00093-0812-01'
p1137
g1
((lp1138
g7
aS'93'
p1139
aS'50 mg'
p1140
aS'812'
p1141
atp1142
Rp1143
sS'00093-2130-01'
p1144
g1
((lp1145
g7
aS'50 mg'
p1146
aS'Zenith'
p1147
atp1148
Rp1149
sS'00093-7772-01'
p1150
g1
((lp1151
g7
ag252
atp1152
Rp1153
sS'63304-0693-01'
p1154
g1
((lp1155
g7
aS'RX693 RX693'
p1156
atp1157
Rp1158
sS'00781-5185-01'
p1159
g1
((lp1160
g7
aS'GG 336'
p1161
aS'112'
p1162
atp1163
Rp1164
sS'00093-0012-98'
p1165
g1
((lp1166
g7
aS'93/12'
p1167
atp1168
Rp1169
sS'00013-5301-17'
p1170
g1
((lp1171
S'MYCO'
p1172
ag7
aS'OBUTI'
p1173
aS'a& Upjoh'
p1174
aS'Pharmaci'
p1175
atp1176
Rp1177
sS'00555-0513-02'
p1178
g1
((lp1179
g7
aS'arr'
p1180
aS'513'
p1181
atp1182
Rp1183
sS'00093-4029-01'
p1184
g1
((lp1185
S'TEVA 4029'
p1186
ag7
atp1187
Rp1188
sS'00781-2020-05'
p1189
g1
((lp1190
S'GG 848'
p1191
ag7
aS'AMOX 250'
p1192
atp1193
Rp1194
sS'53489-0531-01'
p1195
g1
((lp1196
g7
aS'153'
p1197
atp1198
Rp1199
sS'00093-0757-01'
p1200
g1
((lp1201
g7
aS'93'
p1202
aS'757'
p1203
atp1204
Rp1205
sS'00591-5694-01'
p1206
g1
((lp1207
g44
ag655
ag7
atp1208
Rp1209
sS'00187-0844-01'
p1210
g1
((lp1211
S'0844'
p1212
aS'LEA'
p1213
aS'PF'
p1214
ag7
atp1215
Rp1216
sS'00093-5353-01'
p1217
g1
((lp1218
S'TV'
p1219
ag7
aS'A18'
p1220
atp1221
Rp1222
sS'50111-0470-01'
p1223
g1
((lp1224
g7
aS'41'
p1225
atp1226
Rp1227
sS'00054-2526-25'
p1228
g1
((lp1229
g7
aS'54 213'
p1230
atp1231
Rp1232
sS'00555-9025-42'
p1233
g1
((lp1234
g44
ag7
atp1235
Rp1236
sS'00093-0926-06'
p1237
g1
((lp1238
g7
aS'TEVA'
p1239
atp1240
Rp1241
sS'00093-4339-01'
p1242
g1
((lp1243
S'10 mg'
p1244
aS'[4339'
p1245
ag7
atp1246
Rp1247
sS'00378-6440-01'
p1248
g1
((lp1249
g7
ag323
ag33
atp1250
Rp1251
sS'00555-9010-58'
p1252
g1
((lp1253
g7
aS'949'
p1254
atp1255
Rp1256
sS'00093-1063-01'
p1257
g1
((lp1258
g7
aS'93 63'
p1259
atp1260
Rp1261
sS'00093-1026-06'
p1262
g1
((lp1263
g7
aS'1026'
p1264
atp1265
Rp1266
sS'00093-7370-01'
p1267
g1
((lp1268
g7
aS'7370'
p1269
ag105
ag323
aS'93'
p1270
aS'TEVA 7370'
p1271
atp1272
Rp1273
sS'00555-0834-02'
p1274
g1
((lp1275
g7
ag142
atp1276
Rp1277
sS'00093-0756-01'
p1278
g1
((lp1279
g7
aS'9 3'
p1280
aS'93'
p1281
aS'756'
p1282
atp1283
Rp1284
sS'00093-0810-01'
p1285
g1
((lp1286
S'TEVA 10mg'
p1287
ag7
aS'0810'
p1288
atp1289
Rp1290
sS'00093-3167-53'
p1291
g1
((lp1292
g7
aS'3167'
p1293
aS'\xd0\xa2\xd0\x95 \xd0\x90'
p1294
aS'93'
p1295
atp1296
Rp1297
sS'00173-0759-60'
p1298
g1
((lp1299
S'XR'
p1300
ag7
atp1301
Rp1302
sS'50111-0852-01'
p1303
g1
((lp1304
g7
aS'PA2120'
p1305
atp1306
Rp1307
sS'00093-4356-01'
p1308
g1
((lp1309
g7
aS'4356'
p1310
aS'20 mg'
p1311
atp1312
Rp1313
sS'65597-0701-18'
p1314
g1
((lp1315
S'CO1'
p1316
ag7
aS'SANKYO'
p1317
atp1318
Rp1319
sS'00186-0520-60'
p1320
g1
((lp1321
S'500/20'
p1322
ag7
atp1323
Rp1324
sS'00555-0633-02'
p1325
g1
((lp1326
g7
aS'barr 633'
p1327
atp1328
Rp1329
sS'00781-2054-01'
p1330
g1
((lp1331
g7
aS'624 624'
p1332
atp1333
Rp1334
sS'00054-0109-25'
p1335
g1
((lp1336
g7
aS'54 602'
p1337
atp1338
Rp1339
sS'50458-0551-01'
p1340
g1
((lp1341
g7
aS'PAL6'
p1342
atp1343
Rp1344
sS'00555-1022-01'
p1345
g1
((lp1346
g7
aS'24 amg 1022'
p1347
atp1348
Rp1349
sS'00555-0324-02'
p1350
g1
((lp1351
g7
aS'324'
p1352
aS'barr 100'
p1353
atp1354
Rp1355
sS'00093-5504-56'
p1356
g1
((lp1357
g7
aS'TEVA 5504'
p1358
atp1359
Rp1360
sS'00074-3040-11'
p1361
g1
((lp1362
g7
aS'0)'
p1363
atp1364
Rp1365
sS'59762-5018-01'
p1366
g1
((lp1367
g7
aS'FLZ 200'
p1368
atp1369
Rp1370
sS'00093-2929-01'
p1371
g1
((lp1372
S'2929'
p1373
ag7
atp1374
Rp1375
sS'59762-2002-01'
p1376
g1
((lp1377
g7
aS'2002 2002'
p1378
atp1379
Rp1380
sS'00555-0980-37'
p1381
g1
((lp1382
S'\xd1\x8c 980'
p1383
ag7
atp1384
Rp1385
sS'00781-1787-01'
p1386
g1
((lp1387
g7
aS'738'
p1388
atp1389
Rp1390
sS'00172-7310-46'
p1391
g1
((lp1392
g7
aS'25mg'
p1393
atp1394
Rp1395
sS'47335-0894-81'
p1396
g1
((lp1397
g7
aS'894'
p1398
atp1399
Rp1400
sS'23635-0108-20'
p1401
g1
((lp1402
g7
aS'10/8'
p1403
aS'HP/CP'
p1404
atp1405
Rp1406
sS'00603-3856-21'
p1407
g1
((lp1408
S'357'
p1409
ag7
atp1410
Rp1411
sS'00145-0091-25'
p1412
g1
((lp1413
g7
aS'25mg'
p1414
atp1415
Rp1416
sS'00781-1146-01'
p1417
g1
((lp1418
S'02'
p1419
ag7
atp1420
Rp1421
sS'00555-9026-58'
p1422
g1
((lp1423
g44
ag7
aS'377'
p1424
atp1425
Rp1426
sS'00093-0752-01'
p1427
g1
((lp1428
g7
aS'/52'
p1429
aS'E VA'
p1430
atp1431
Rp1432
sS'00172-7311-46'
p1433
g1
((lp1434
g7
aS'50 mg'
p1435
atp1436
Rp1437
sS'00093-1005-01'
p1438
g1
((lp1439
g7
aS'93-5'
p1440
atp1441
Rp1442
sS'00093-7795-06'
p1443
g1
((lp1444
g7
aS'TV/7795'
p1445
atp1446
Rp1447
sS'00093-5142-56'
p1448
g1
((lp1449
g7
aS'93'
p1450
aS'142'
p1451
atp1452
Rp1453
sS'00093-0811-01'
p1454
g1
((lp1455
g44
ag7
ag252
ag105
ag185
atp1456
Rp1457
sS'00093-7338-01'
p1458
g1
((lp1459
g7
aS'93'
p1460
aS'7338'
p1461
atp1462
Rp1463
sS'00069-2600-66'
p1464
g1
((lp1465
g7
aS'PFIZER 260'
p1466
aS'PROCARDIA'
p1467
atp1468
Rp1469
sS'00555-0590-01'
p1470
g1
((lp1471
g7
ag655
aS'arr'
p1472
aS'400 mg'
p1473
aS'590'
p1474
atp1475
Rp1476
sS'00555-0882-02'
p1477
g1
((lp1478
g7
aS'barr 882'
p1479
atp1480
Rp1481
sS'00378-0310-01'
p1482
g1
((lp1483
g7
ag46
atp1484
Rp1485
sS'00093-5112-98'
p1486
g1
((lp1487
S'120'
p1488
ag7
ag185
aS'BVF'
p1489
ag33
atp1490
Rp1491
sS'00093-0149-01'
p1492
g1
((lp1493
g7
aS'14 9'
p1494
atp1495
Rp1496
sS'00781-5046-01'
p1497
g1
((lp1498
g7
aS'165'
p1499
atp1500
Rp1501
sS'00555-0859-02'
p1502
g1
((lp1503
g7
aS'8 59'
p1504
ag46
atp1505
Rp1506
sS'53489-0648-01'
p1507
g1
((lp1508
g7
aS'MUTUAL'
p1509
aS'866'
p1510
atp1511
Rp1512
sS'00832-1080-00'
p1513
g1
((lp1514
S'832'
p1515
ag7
aS'BMOS'
p1516
atp1517
Rp1518
sS'51285-0691-02'
p1519
g1
((lp1520
g7
aS'O P'
p1521
atp1522
Rp1523
sS'00186-5040-31'
p1524
g1
((lp1525
g7
aS'40 mg'
p1526
aS'EXIU'
p1527
ag655
atp1528
Rp1529
sS'00093-3129-01'
p1530
g1
((lp1531
g7
aS'93'
p1532
aS'3129'
p1533
atp1534
Rp1535
sS'50111-0901-01'
p1536
g1
((lp1537
S'PA1000'
p1538
ag7
atp1539
Rp1540
sS'49230-0640-21'
p1541
g1
((lp1542
g7
aS'6wL99'
p1543
atp1544
Rp1545
sS'00093-1060-01'
p1546
g1
((lp1547
g7
aS'93 1060'
p1548
atp1549
Rp1550
sS'59762-2858-01'
p1551
g1
((lp1552
g7
aS'2858'
p1553
atp1554
Rp1555
sS'00172-5032-60'
p1556
g1
((lp1557
g7
aS'20/25'
p1558
atp1559
Rp1560
sS'00093-7335-06'
p1561
g1
((lp1562
g7
aS'TEVA 7335'
p1563
atp1564
Rp1565
sS'00093-7443-56'
p1566
g1
((lp1567
g7
aS'TEVA 7443'
p1568
atp1569
Rp1570
sS'51285-0539-02'
p1571
g1
((lp1572
g7
aS'OP 719'
p1573
atp1574
Rp1575
sS'00074-3020-11'
p1576
g1
((lp1577
S'SOLVAY'
p1578
ag7
aS'5150'
p1579
atp1580
Rp1581
sS'00173-0565-04'
p1582
g1
((lp1583
S'1 gram'
p1584
ag7
aS'VALTREX'
p1585
atp1586
Rp1587
sS'00591-5554-01'
p1588
g1
((lp1589
g7
aS'1O'
p1590
atp1591
Rp1592
sS'00002-3239-30'
p1593
g1
((lp1594
S'$60 mg'
p1595
aS'323'
p1596
ag7
aS'60 mg'
p1597
atp1598
Rp1599
sS'00093-4235-01'
p1600
g1
((lp1601
g7
aS'4235'
p1602
atp1603
Rp1604
sS'51672-4032-01'
p1605
g1
((lp1606
g7
aS'WARFARI'
p1607
aS'ARO'
p1608
atp1609
Rp1610
sS'00555-0588-01'
p1611
g1
((lp1612
g7
aS'arr'
p1613
aS'200 mg'
p1614
aS'588'
p1615
atp1616
Rp1617
sS'60505-0065-00'
p1618
g1
((lp1619
g7
aS'APO 020'
p1620
atp1621
Rp1622
sS'60505-0065-01'
p1623
g1
((lp1624
g7
aS'APO 020'
p1625
atp1626
Rp1627
sS'00093-4234-01'
p1628
g1
((lp1629
g7
aS'4234'
p1630
atp1631
Rp1632
sS'00093-5505-56'
p1633
g1
((lp1634
S'TEVA 5505'
p1635
ag7
atp1636
Rp1637
sS'00228-2550-06'
p1638
g1
((lp1639
g7
aS'550'
p1640
atp1641
Rp1642
sS'00172-5412-79'
p1643
g1
((lp1644
g7
aS'5 412'
p1645
aS'%150'
p1646
atp1647
Rp1648
sS'00071-1017-68'
p1649
g1
((lp1650
S'PGN'
p1651
ag7
aS'Pfirer 200'
p1652
atp1653
Rp1654
sS'00555-9034-58'
p1655
g1
((lp1656
g7
aS'735'
p1657
atp1658
Rp1659
sS'16110-0075-01'
p1660
g1
((lp1661
g7
aS'ONOD'
p1662
aS'075'
p1663
aS'75'
p1664
atp1665
Rp1666
sS'00173-0556-02'
p1667
g1
((lp1668
g7
aS'150'
p1669
aS'ZYBAN'
p1670
atp1671
Rp1672
sS'00093-5141-56'
p1673
g1
((lp1674
g7
aS'93'
p1675
atp1676
Rp1677
sS'52544-0291-28'
p1678
g1
((lp1679
g7
aS'50/30'
p1680
atp1681
Rp1682
sS'00093-7381-01'
p1683
g1
((lp1684
g7
aS'738'
p1685
atp1686
Rp1687
sS'00093-5140-56'
p1688
g1
((lp1689
g7
aS'93'
p1690
aS'51440'
p1691
atp1692
Rp1693
sS'00093-7385-56'
p1694
g1
((lp1695
g7
aS'93'
p1696
aS'7385'
p1697
atp1698
Rp1699
sS'53014-0404-10'
p1700
g1
((lp1701
g7
ag655
aS'SEMPRE'
p1702
ag323
atp1703
Rp1704
sS'00172-2083-60'
p1705
g1
((lp1706
g7
aS'2083'
p1707
atp1708
Rp1709
sS'51672-4029-01'
p1710
g1
((lp1711
g7
aS'WARFARI'
p1712
aS'TARO'
p1713
atp1714
Rp1715
sS'00173-0755-00'
p1716
g1
((lp1717
S'xR'
p1718
ag7
atp1719
Rp1720
s.