ccollections
defaultdict
p0
(c__builtin__
set
p1
tp2
Rp3
S''
p4
g1
((lp5
S'00093-5119-98'
p6
aS'00093-2203-01'
p7
aS'50111-0393-01'
p8
aS'52544-0152-30'
p9
aS'00093-5117-98'
p10
aS'29033-0020-12'
p11
aS'00093-7326-01'
p12
aS'00378-0143-01'
p13
aS'00555-0832-02'
p14
aS'00603-5771-21'
p15
aS'00002-3238-30'
p16
aS'00555-1057-86'
p17
aS'00555-9009-42'
p18
aS'00781-2053-01'
p19
aS'00603-5165-32'
p20
aS'51672-4033-01'
p21
aS'00173-0933-08'
p22
aS'53489-0384-01'
p23
aS'00074-9189-90'
p24
aS'00093-2270-34'
p25
aS'00093-0771-98'
p26
aS'00093-7796-06'
p27
aS'00093-0148-01'
p28
aS'00591-2473-19'
p29
aS'00169-0081-81'
p30
aS'00093-0028-01'
p31
aS'65580-0304-03'
p32
aS'00591-0302-01'
p33
aS'00093-4030-01'
p34
aS'00093-7442-56'
p35
aS'00093-7178-01'
p36
aS'00093-7380-01'
p37
aS'63459-0700-60'
p38
aS'00228-2551-06'
p39
aS'50111-0326-01'
p40
aS'00093-7350-56'
p41
aS'50111-0647-01'
p42
aS'00149-0007-05'
p43
aS'62559-1507-00'
p44
aS'00781-1506-01'
p45
aS'00555-1056-86'
p46
aS'00093-3123-01'
p47
aS'66213-0421-10'
p48
aS'00378-3482-01'
p49
aS'00173-0758-60'
p50
aS'51672-4030-01'
p51
aS'00093-2075-01'
p52
aS'00555-0925-02'
p53
aS'00173-0562-00'
p54
aS'60505-1308-01'
p55
aS'50111-0851-01'
p56
aS'00173-0785-01'
p57
aS'50458-0925-50'
p58
aS'00093-4236-01'
p59
aS'00378-2537-01'
p60
aS'65580-0303-03'
p61
aS'00555-0635-09'
p62
aS'59762-2003-01'
p63
aS'60505-0146-00'
p64
aS'00093-4232-01'
p65
aS'00093-7227-72'
p66
aS'00093-7437-01'
p67
aS'00093-7383-01'
p68
aS'58468-0130-01'
p69
aS'50111-0325-01'
p70
aS'51285-0692-02'
p71
aS'50111-0468-01'
p72
aS'00093-3160-06'
p73
aS'00093-0311-01'
p74
aS'54092-0517-02'
p75
aS'00378-3475-01'
p76
aS'00093-7198-56'
p77
aS'68180-0480-01'
p78
aS'00093-0787-01'
p79
aS'00172-4358-46'
p80
aS'51285-0082-97'
p81
aS'00093-3165-01'
p82
aS'51285-0754-02'
p83
aS'00555-1020-01'
p84
aS'00527-1413-01'
p85
aS'00002-3250-30'
p86
aS'00093-8940-01'
p87
aS'00555-0066-02'
p88
aS'00002-3228-30'
p89
aS'25010-0205-15'
p90
aS'00093-7336-06'
p91
aS'00378-5123-01'
p92
aS'00078-0574-15'
p93
aS'00378-3205-01'
p94
aS'00093-0924-01'
p95
aS'00172-5034-60'
p96
aS'00004-0800-85'
p97
aS'50111-0328-01'
p98
aS'00781-1191-01'
p99
aS'00093-3127-01'
p100
aS'59762-5033-02'
p101
aS'00093-5711-01'
p102
aS'00777-3105-02'
p103
aS'00054-4182-25'
p104
aS'68968-3500-01'
p105
aS'00093-7254-01'
p106
aS'00555-0886-02'
p107
aS'00093-4336-01'
p108
aS'00003-4222-16'
p109
aS'00172-7312-46'
p110
aS'00555-0808-02'
p111
aS'65580-0302-03'
p112
aS'00781-2201-01'
p113
aS'00555-0634-02'
p114
aS'65197-0002-01'
p115
aS'00093-7438-01'
p116
aS'00093-2272-34'
p117
aS'00781-5189-01'
p118
aS'54092-0189-81'
p119
aS'00093-7466-98'
p120
aS'00093-4069-01'
p121
aS'59762-2004-01'
p122
aS'00555-0733-02'
p123
aS'00093-0657-01'
p124
aS'00093-3193-01'
p125
aS'00093-2080-01'
p126
aS'00093-0658-01'
p127
aS'00093-1044-01'
p128
aS'00093-7334-01'
p129
aS'00555-1055-86'
p130
aS'51285-0538-02'
p131
aS'00093-3125-01'
p132
aS'00555-0302-02'
p133
aS'00093-3195-01'
p134
aS'00037-2250-10'
p135
aS'49884-0652-01'
p136
aS'00093-4067-01'
p137
aS'50111-0324-01'
p138
aS'00093-4068-01'
p139
aS'64720-0323-10'
p140
aS'00078-0572-15'
p141
aS'00093-7202-98'
p142
aS'00093-3147-01'
p143
aS'00555-9012-58'
p144
aS'00555-0071-01'
p145
aS'00093-5118-98'
p146
aS'10144-0606-15'
p147
aS'00093-0928-06'
p148
aS'64764-0805-30'
p149
aS'00093-7671-01'
p150
aS'00093-3196-53'
p151
aS'00093-7325-01'
p152
aS'00173-0135-55'
p153
aS'00023-9350-07'
p154
aS'00378-3495-01'
p155
aS'00093-3002-56'
p156
aS'00781-5187-01'
p157
aS'00555-0059-02'
p158
aS'00093-5256-68'
p159
aS'00228-2779-11'
p160
aS'10144-0602-15'
p161
aS'00093-1052-01'
p162
aS'00781-5186-01'
p163
aS'00093-3109-53'
p164
aS'00555-1021-01'
p165
aS'00832-1024-00'
p166
aS'00093-7670-01'
p167
aS'68012-0104-30'
p168
aS'00555-1883-02'
p169
aS'00555-0589-01'
p170
aS'00378-1010-01'
p171
aS'00378-0183-01'
p172
aS'00781-5181-01'
p173
aS'00591-0388-01'
p174
aS'00093-7386-56'
p175
aS'00009-7663-04'
p176
aS'00093-7270-98'
p177
aS'47335-0580-81'
p178
aS'00093-4338-01'
p179
aS'00093-0576-06'
p180
aS'66582-0313-31'
p181
aS'00093-5506-56'
p182
aS'51672-4016-01'
p183
aS'00555-0323-02'
p184
aS'00093-4741-01'
p185
aS'00002-3251-30'
p186
aS'65162-0212-11'
p187
aS'00781-5183-01'
p188
aS'00093-7436-01'
p189
aS'00093-5507-56'
p190
aS'00145-3817-03'
p191
aS'00555-0874-02'
p192
aS'00172-5413-46'
p193
aS'00093-0054-01'
p194
aS'00555-9016-58'
p195
aS'00591-3210-60'
p196
aS'41616-0759-83'
p197
aS'59148-0006-13'
p198
aS'00093-3171-01'
p199
aS'00172-4960-58'
p200
aS'43386-0660-24'
p201
aS'00002-3229-30'
p202
aS'00310-0282-60'
p203
aS'00555-0869-02'
p204
aS'00074-1973-54'
p205
aS'00093-4404-01'
p206
aS'59762-5021-01'
p207
aS'47781-0307-01'
p208
aS'00093-0813-01'
p209
aS'00143-1257-01'
p210
aS'00093-4405-01'
p211
aS'00071-1015-68'
p212
aS'00093-1024-06'
p213
aS'00093-0812-01'
p214
aS'00093-2130-01'
p215
aS'00093-7772-01'
p216
aS'63304-0693-01'
p217
aS'00781-5185-01'
p218
aS'00093-0012-98'
p219
aS'00013-5301-17'
p220
aS'00555-0513-02'
p221
aS'00093-4029-01'
p222
aS'00781-2020-05'
p223
aS'53489-0531-01'
p224
aS'00093-0757-01'
p225
aS'00591-5694-01'
p226
aS'00187-0844-01'
p227
aS'00093-5353-01'
p228
aS'50111-0470-01'
p229
aS'00054-2526-25'
p230
aS'00555-9025-42'
p231
aS'00093-0926-06'
p232
aS'00093-4339-01'
p233
aS'00378-6440-01'
p234
aS'00555-9010-58'
p235
aS'00093-1063-01'
p236
aS'00093-1026-06'
p237
aS'00093-7370-01'
p238
aS'00555-0834-02'
p239
aS'00093-0756-01'
p240
aS'00093-0810-01'
p241
aS'00093-3167-53'
p242
aS'00173-0759-60'
p243
aS'50111-0852-01'
p244
aS'00093-4356-01'
p245
aS'65597-0701-18'
p246
aS'00186-0520-60'
p247
aS'00555-0633-02'
p248
aS'00781-2054-01'
p249
aS'00054-0109-25'
p250
aS'50458-0551-01'
p251
aS'00555-1022-01'
p252
aS'00555-0324-02'
p253
aS'00093-5504-56'
p254
aS'00074-3040-11'
p255
aS'59762-5018-01'
p256
aS'00093-2929-01'
p257
aS'59762-2002-01'
p258
aS'00555-0980-37'
p259
aS'00781-1787-01'
p260
aS'00172-7310-46'
p261
aS'47335-0894-81'
p262
aS'23635-0108-20'
p263
aS'00603-3856-21'
p264
aS'00145-0091-25'
p265
aS'00781-1146-01'
p266
aS'00555-9026-58'
p267
aS'00093-0752-01'
p268
aS'00172-7311-46'
p269
aS'00093-1005-01'
p270
aS'00093-7795-06'
p271
aS'00093-5142-56'
p272
aS'00093-0811-01'
p273
aS'00093-7338-01'
p274
aS'00069-2600-66'
p275
aS'00555-0590-01'
p276
aS'00555-0882-02'
p277
aS'00378-0310-01'
p278
aS'00093-5112-98'
p279
aS'00093-0149-01'
p280
aS'00781-5046-01'
p281
aS'00555-0859-02'
p282
aS'53489-0648-01'
p283
aS'00832-1080-00'
p284
aS'51285-0691-02'
p285
aS'00186-5040-31'
p286
aS'00093-3129-01'
p287
aS'50111-0901-01'
p288
aS'49230-0640-21'
p289
aS'00093-1060-01'
p290
aS'59762-2858-01'
p291
aS'00172-5032-60'
p292
aS'00093-7335-06'
p293
aS'00093-7443-56'
p294
aS'51285-0539-02'
p295
aS'00074-3020-11'
p296
aS'00173-0565-04'
p297
aS'00591-5554-01'
p298
aS'00002-3239-30'
p299
aS'00093-4235-01'
p300
aS'51672-4032-01'
p301
aS'00555-0588-01'
p302
aS'60505-0065-00'
p303
aS'60505-0065-01'
p304
aS'00093-4234-01'
p305
aS'00093-5505-56'
p306
aS'00228-2550-06'
p307
aS'00172-5412-79'
p308
aS'00071-1017-68'
p309
aS'00555-9034-58'
p310
aS'16110-0075-01'
p311
aS'00173-0556-02'
p312
aS'00093-5141-56'
p313
aS'52544-0291-28'
p314
aS'00093-7381-01'
p315
aS'00093-5140-56'
p316
aS'00093-7385-56'
p317
aS'53014-0404-10'
p318
aS'00172-2083-60'
p319
aS'51672-4029-01'
p320
aS'00173-0755-00'
p321
atp322
Rp323
sS'S429'
p324
g1
((lp325
S'54092-0189-81'
p326
atp327
Rp328
sS'1.17.5m'
p329
g1
((lp330
g191
atp331
Rp332
sS'JN9'
p333
g1
((lp334
g147
atp335
Rp336
sS'WAREARIR'
p337
g1
((lp338
g51
atp339
Rp340
sS'-R'
p341
g1
((lp342
g160
atp343
Rp344
sS'4029'
p345
g1
((lp346
g222
atp347
Rp348
sS'3250'
p349
g1
((lp350
g86
atp351
Rp352
sS'0'
p353
g1
((lp354
g124
ag286
ag318
ag276
ag226
atp355
Rp356
sS'812'
p357
g1
((lp358
g214
atp359
Rp360
sS'2858'
p361
g1
((lp362
g291
atp363
Rp364
sS'719'
p365
g1
((lp366
g295
atp367
Rp368
sS'718'
p369
g1
((lp370
g131
atp371
Rp372
sS'\xe3\x83\x90D'
p373
g1
((lp374
g30
atp375
Rp376
sS'mg'
p377
g1
((lp378
g186
ag179
ag97
ag9
ag103
ag16
ag22
ag108
ag110
ag115
ag326
ag269
ag202
aS'63459-0700-60'
p379
ag276
ag208
ag286
ag215
ag299
ag214
ag302
ag233
ag84
ag86
ag89
ag245
atp380
Rp381
sS'GG'
p382
g1
((lp383
g157
ag118
aS'00781-5185-01'
p384
ag188
ag223
ag163
atp385
Rp386
sS'P'
p387
g1
((lp388
g285
atp389
Rp390
sS'O2L'
p391
g1
((lp392
g213
atp393
Rp394
sS'GC'
p395
g1
((lp396
g45
atp397
Rp398
sS'JNZ'
p399
g1
((lp400
g161
atp401
Rp402
sS'Go'
p403
g1
((lp404
S'52544-0152-30'
p405
atp406
Rp407
sS'290'
p408
g1
((lp409
g193
atp410
Rp411
sS'EVI'
p412
g1
((lp413
g7
ag120
atp414
Rp415
sS'\xe3\x82\x938,'
p416
g1
((lp417
g149
atp418
Rp419
sS'EVA'
p420
g1
((lp421
g26
ag194
atp422
Rp423
sS'3147'
p424
g1
((lp425
S'00093-3147-01'
p426
atp427
Rp428
sS'WAISON'
p429
g1
((lp430
g174
atp431
Rp432
sS'ATON\xc4\xb0'
p433
g1
((lp434
g90
atp435
Rp436
sS'25mg'
p437
g1
((lp438
g265
ag261
atp439
Rp440
sS't'
p441
g1
((lp442
g79
atp443
Rp444
sS'1010'
p445
g1
((lp446
g171
atp447
Rp448
sS'3129'
p449
g1
((lp450
g287
atp451
Rp452
sS'4356'
p453
g1
((lp454
g245
atp455
Rp456
sS'MG'
p457
g1
((lp458
g183
atp459
Rp460
sS'33'
p461
g1
((lp462
g173
atp463
Rp464
sS'37'
p465
g1
((lp466
g60
atp467
Rp468
sS'338'
p469
g1
((lp470
g157
atp471
Rp472
sS'[4339'
p473
g1
((lp474
g233
atp475
Rp476
sS'337'
p477
g1
((lp478
g163
atp479
Rp480
sS'336'
p481
g1
((lp482
g384
atp483
Rp484
sS'331'
p485
g1
((lp486
g188
atp487
Rp488
sS'CTA'
p489
g1
((lp490
g50
atp491
Rp492
sS'6'
p493
g1
((lp494
g279
ag10
ag72
ag234
atp495
Rp496
sS'Sen40'
p497
g1
((lp498
g202
atp499
Rp500
sS'Novel'
p501
g1
((lp502
g201
atp503
Rp504
sS'V'
p505
g1
((lp506
g141
atp507
Rp508
sS'NVN2'
p509
g1
((lp510
g105
atp511
Rp512
sS'93'
p513
g1
((lp514
g100
ag317
ag156
aS'00093-3167-53'
p515
ag189
ag290
ag116
aS'00093-2272-34'
p516
ag175
aS'00093-5142-56'
p517
ag313
aS'00093-0657-01'
p518
ag125
ag274
aS'00093-7370-01'
p519
ag287
ag426
ag41
ag225
ag151
ag66
ag67
ag214
aS'00093-5256-68'
p520
ag73
ag74
ag236
aS'00093-3165-01'
p521
ag240
ag316
aS'00093-3171-01'
p522
atp523
Rp524
sS'2270'
p525
g1
((lp526
g25
atp527
Rp528
sS'3205'
p529
g1
((lp530
g94
atp531
Rp532
sS'\xd0\xa2\xd0\x95'
p533
g1
((lp534
g242
atp535
Rp536
sS'2.65'
p537
g1
((lp538
g90
atp539
Rp540
sS'SA'
p541
g1
((lp542
g153
atp543
Rp544
sS'551'
p545
g1
((lp546
g39
atp547
Rp548
sS'550'
p549
g1
((lp550
g307
atp551
Rp552
sS'236'
p553
g1
((lp554
g59
atp555
Rp556
sS'7178'
p557
g1
((lp558
g36
atp559
Rp560
sS'7670'
p561
g1
((lp562
g167
atp563
Rp564
sS'7671'
p565
g1
((lp566
g150
atp567
Rp568
sS'1052'
p569
g1
((lp570
g162
atp571
Rp572
sS'LA'
p573
g1
((lp574
g104
atp575
Rp576
sS'PGN'
p577
g1
((lp578
g212
ag309
atp579
Rp580
sS'1'
p581
g1
((lp582
S'00093-0811-01'
p583
ag23
ag108
ag297
ag519
atp584
Rp585
sS'93-5'
p586
g1
((lp587
g270
atp588
Rp589
sS'DYRENIUM'
p590
g1
((lp591
g115
atp592
Rp593
sS'142'
p594
g1
((lp595
g272
atp596
Rp597
sS'143'
p598
g1
((lp599
g13
atp600
Rp601
sS'RX693'
p602
g1
((lp603
g217
atp604
Rp605
sS'20/25'
p606
g1
((lp607
g292
atp608
Rp609
sS'120'
p610
g1
((lp611
g279
atp612
Rp613
sS'Aeay25'
p614
g1
((lp615
g89
atp616
Rp617
sS'949'
p618
g1
((lp619
g18
ag235
atp620
Rp621
sS'2083'
p622
g1
((lp623
g319
atp624
Rp625
sS'2080'
p626
g1
((lp627
g126
atp628
Rp629
sS'940'
p630
g1
((lp631
g87
atp632
Rp633
sS'ZYBAN'
p634
g1
((lp635
g312
atp636
Rp637
sS'2537'
p638
g1
((lp639
g60
atp640
Rp641
sS'092'
p642
g1
((lp643
g95
atp644
Rp645
sS'WATSON'
p646
g1
((lp647
g196
atp648
Rp649
sS'Upjoh'
p650
g1
((lp651
S'00013-5301-17'
p652
atp653
Rp654
sS'135'
p655
g1
((lp656
g24
atp657
Rp658
sS'495'
p659
g1
((lp660
g155
atp661
Rp662
sS'7380'
p663
g1
((lp664
g37
atp665
Rp666
sS'7386'
p667
g1
((lp668
g175
atp669
Rp670
sS'4222'
p671
g1
((lp672
g109
atp673
Rp674
sS'7385'
p675
g1
((lp676
g317
atp677
Rp678
sS'24'
p679
g1
((lp680
g252
atp681
Rp682
sS'25'
p683
g1
((lp684
g184
atp685
Rp686
sS'20'
p687
g1
((lp688
g172
ag245
ag103
atp689
Rp690
sS'SAN'
p691
g1
((lp692
g154
atp693
Rp694
sS'23'
p695
g1
((lp696
S'00093-4236-01'
p697
atp698
Rp699
sS'28'
p700
g1
((lp701
g31
atp702
Rp703
sS'PAL6'
p704
g1
((lp705
g251
atp706
Rp707
sS'ONOD'
p708
g1
((lp709
g311
atp710
Rp711
sS'400'
p712
g1
((lp713
g276
atp714
Rp715
sS'2010'
p716
g1
((lp717
g119
atp718
Rp719
sS'935'
p720
g1
((lp721
g130
atp722
Rp723
sS'3'
p724
g1
((lp725
g180
aS'00093-7326-01'
p726
ag124
ag278
aS'00093-0756-01'
p727
ag185
ag282
ag181
atp728
Rp729
sS'4030'
p730
g1
((lp731
g34
atp732
Rp733
sS'0844'
p734
g1
((lp735
g227
atp736
Rp737
sS'020'
p738
g1
((lp739
g207
ag303
ag304
atp740
Rp741
sS'LEYAQUIN'
p742
g1
((lp743
g58
atp744
Rp745
sS'SANKYO'
p746
g1
((lp747
g246
atp748
Rp749
sS'PFIZER'
p750
g1
((lp751
g275
atp752
Rp753
sS'APO'
p754
g1
((lp755
g55
ag64
ag304
ag303
atp756
Rp757
sS'1060'
p758
g1
((lp759
g290
atp760
Rp761
sS'377'
p762
g1
((lp763
g267
atp764
Rp765
sS'HDU'
p766
g1
((lp767
S'00078-0572-15'
p768
atp769
Rp770
sS'SOMA'
p771
g1
((lp772
g135
atp773
Rp774
sS'50/30'
p775
g1
((lp776
g314
atp777
Rp778
sS'80'
p779
g1
((lp780
g86
atp781
Rp782
sS'110\xe9\xbe\x9b'
p783
g1
((lp784
g101
atp785
Rp786
sS'IEVA'
p787
g1
((lp788
g148
atp789
Rp790
sS'5256'
p791
g1
((lp792
g159
atp793
Rp794
sS'7'
p795
g1
((lp796
g239
ag209
ag30
atp797
Rp798
sS'0444'
p799
g1
((lp800
g128
atp801
Rp802
sS'rm'
p803
g1
((lp804
g170
atp805
Rp806
sS'\xd1\x8c'
p807
g1
((lp808
g259
atp809
Rp810
sS'588'
p811
g1
((lp812
g302
atp813
Rp814
sS'SEMPRE'
p815
g1
((lp816
g318
atp817
Rp818
sS'240'
p819
g1
((lp820
g146
atp821
Rp822
sS'MACRODAN'
p823
g1
((lp824
g208
atp825
Rp826
sS'10mg'
p827
g1
((lp828
g241
atp829
Rp830
sS'513'
p831
g1
((lp832
g221
atp833
Rp834
sS'623'
p835
g1
((lp836
g19
atp837
Rp838
sS'4069'
p839
g1
((lp840
g121
atp841
Rp842
sS'/00'
p843
g1
((lp844
g71
atp845
Rp846
sS'624'
p847
g1
((lp848
g249
atp849
Rp850
sS'454'
p851
g1
((lp852
g46
atp853
Rp854
sS'\xd0\xa0\xd0\x9083'
p855
g1
((lp856
g169
atp857
Rp858
sS'BUTR'
p859
g1
((lp860
g153
atp861
Rp862
sS'096t'
p863
g1
((lp864
g200
atp865
Rp866
sS'1O'
p867
g1
((lp868
g298
atp869
Rp870
sS'MUTUAL'
p871
g1
((lp872
g283
atp873
Rp874
sS'HP/CP'
p875
g1
((lp876
g263
atp877
Rp878
sS'832'
p879
g1
((lp880
g166
ag284
ag14
atp881
Rp882
sS'978'
p883
g1
((lp884
g81
atp885
Rp886
sS'657'
p887
g1
((lp888
g124
atp889
Rp890
sS'180'
p891
g1
((lp892
g10
atp893
Rp894
sS'2'
p895
g1
((lp896
g177
ag50
ag204
ag216
ag583
ag98
ag209
atp897
Rp898
sS'652'
p899
g1
((lp900
g136
atp901
Rp902
sS'1507'
p903
g1
((lp904
g44
atp905
Rp906
sS'xR'
p907
g1
((lp908
g321
atp909
Rp910
sS'en,100'
p911
g1
((lp912
g186
atp913
Rp914
sS'93/12'
p915
g1
((lp916
g219
atp917
Rp918
sS'WPC'
p919
g1
((lp920
g115
atp921
Rp922
sS'7350'
p923
g1
((lp924
g41
atp925
Rp926
sS'R'
p927
g1
((lp928
g141
atp929
Rp930
sS'XR'
p931
g1
((lp932
g243
ag50
atp933
Rp934
sS'6wL99'
p935
g1
((lp936
g289
atp937
Rp938
sS'halon'
p939
g1
((lp940
g379
atp941
Rp942
sS'869'
p943
g1
((lp944
g204
atp945
Rp946
sS'10'
p947
g1
((lp948
g233
ag101
atp949
Rp950
sS'14'
p951
g1
((lp952
g28
ag280
atp953
Rp954
sS'17'
p955
g1
((lp956
g83
atp957
Rp958
sS'16'
p959
g1
((lp960
g165
atp961
Rp962
sS'18'
p963
g1
((lp964
g23
atp965
Rp966
sS'RENVELA'
p967
g1
((lp968
g69
atp969
Rp970
sS'866'
p971
g1
((lp972
g283
atp973
Rp974
sS'882'
p975
g1
((lp976
g277
atp977
Rp978
sS'886'
p979
g1
((lp980
g107
atp981
Rp982
sS'100'
p983
g1
((lp984
g110
ag253
ag212
ag123
atp985
Rp986
sS'TEVA7442'
p987
g1
((lp988
g35
atp989
Rp990
sS'7325'
p991
g1
((lp992
g152
atp993
Rp994
sS'MYLAN'
p995
g1
((lp996
g171
ag13
ag60
atp997
Rp998
sS'3238'
p999
g1
((lp1000
g16
atp1001
Rp1002
sS'0813'
p1003
g1
((lp1004
S'00093-0813-01'
p1005
atp1006
Rp1007
sS'0810'
p1008
g1
((lp1009
g241
atp1010
Rp1011
sS'323'
p1012
g1
((lp1013
g184
ag299
ag140
atp1014
Rp1015
sS'326'
p1016
g1
((lp1017
g40
atp1018
Rp1019
sS'324'
p1020
g1
((lp1021
g253
atp1022
Rp1023
sS'325'
p1024
g1
((lp1025
g186
ag70
atp1026
Rp1027
sS'200'
p1028
g1
((lp1029
g211
ag302
aS'00781-5189-01'
p1030
ag11
ag309
ag183
ag256
ag203
ag87
atp1031
Rp1032
sS'S23'
p1033
g1
((lp1034
g92
atp1035
Rp1036
sS'75'
p1037
g1
((lp1038
g97
ag311
atp1039
Rp1040
sS'70'
p1041
g1
((lp1042
g57
atp1043
Rp1044
sS'7663'
p1045
g1
((lp1046
g176
atp1047
Rp1048
sS'PA1000'
p1049
g1
((lp1050
g288
atp1051
Rp1052
sS'\xe5\xaf\xb8'
p1053
g1
((lp1054
g42
atp1055
Rp1056
sS'TARO'
p1057
g1
((lp1058
g320
ag21
atp1059
Rp1060
sS'2233'
p1061
g1
((lp1062
g29
atp1063
Rp1064
sS'PA2120'
p1065
g1
((lp1066
g244
atp1067
Rp1068
sS'358'
p1069
g1
((lp1070
S'00172-4358-46'
p1071
atp1072
Rp1073
sS'o59e'
p1074
g1
((lp1075
g158
atp1076
Rp1077
sS'5506'
p1078
g1
((lp1079
g182
atp1080
Rp1081
sS'5507'
p1082
g1
((lp1083
g190
atp1084
Rp1085
sS'5504'
p1086
g1
((lp1087
g254
atp1088
Rp1089
sS'5505'
p1090
g1
((lp1091
g306
atp1092
Rp1093
sS'PROZAC'
p1094
g1
((lp1095
g103
atp1096
Rp1097
sS'3123'
p1098
g1
((lp1099
g47
atp1100
Rp1101
sS'3127'
p1102
g1
((lp1103
g100
atp1104
Rp1105
sS'3125'
p1106
g1
((lp1107
g132
atp1108
Rp1109
sS'540'
p1110
g1
((lp1111
g43
atp1112
Rp1113
sS'7198'
p1114
g1
((lp1115
g77
atp1116
Rp1117
sS'20/12.5'
p1118
g1
((lp1119
g96
atp1120
Rp1121
sS'8'
p1122
g1
((lp1123
g28
ag9
ag170
ag15
ag127
ag84
ag282
atp1124
Rp1125
sS'MIC'
p1126
g1
((lp1127
g50
atp1128
Rp1129
sS'VICODN'
p1130
g1
((lp1131
g205
atp1132
Rp1133
sS'990'
p1134
g1
((lp1135
g88
atp1136
Rp1137
sS'LEA'
p1138
g1
((lp1139
g227
atp1140
Rp1141
sS'MYLANMYLAN'
p1142
g1
((lp1143
g94
atp1144
Rp1145
sS'124'
p1146
g1
((lp1147
g178
atp1148
Rp1149
sS'4235'
p1150
g1
((lp1151
g300
atp1152
Rp1153
sS'4234'
p1154
g1
((lp1155
g305
atp1156
Rp1157
sS'51440'
p1158
g1
((lp1159
S'00093-5140-56'
p1160
atp1161
Rp1162
sS'7443'
p1163
g1
((lp1164
g294
atp1165
Rp1166
sS'GXCE'
p1167
g1
((lp1168
g54
atp1169
Rp1170
sS'IV\xe2\x96\xb3'
p1171
g1
((lp1172
g138
atp1173
Rp1174
sS'DYRENIUNM'
p1175
g1
((lp1176
g115
atp1177
Rp1178
sS'gram'
p1179
g1
((lp1180
g297
atp1181
Rp1182
sS'412'
p1183
g1
((lp1184
g308
atp1185
Rp1186
sS'413'
p1187
g1
((lp1188
S'00172-5413-46'
p1189
atp1190
Rp1191
sS'VALTREX'
p1192
g1
((lp1193
g22
ag297
atp1194
Rp1195
sS'arr'
p1196
g1
((lp1197
g302
ag276
ag221
atp1198
Rp1199
sS'barr'
p1200
g1
((lp1201
g277
ag17
ag158
ag248
ag253
ag46
ag133
ag184
ag84
ag62
ag130
ag114
ag165
ag111
atp1202
Rp1203
sS'art'
p1204
g1
((lp1205
g192
atp1206
Rp1207
sS'7227'
p1208
g1
((lp1209
g66
atp1210
Rp1211
sS'311'
p1212
g1
((lp1213
g74
atp1214
Rp1215
sS'310'
p1216
g1
((lp1217
g118
atp1218
Rp1219
sS'317'
p1220
g1
((lp1221
g143
atp1222
Rp1223
sS'7383'
p1224
g1
((lp1225
g68
atp1226
Rp1227
sS'500/20'
p1228
g1
((lp1229
g247
atp1230
Rp1231
sS'barn'
p1232
g1
((lp1233
g53
atp1234
Rp1235
sS'02'
p1236
g1
((lp1237
g266
atp1238
Rp1239
sS'03'
p1240
g1
((lp1241
g189
atp1242
Rp1243
sS'00'
p1244
g1
((lp1245
g43
atp1246
Rp1247
sS'06'
p1248
g1
((lp1249
g45
atp1250
Rp1251
sS'7436'
p1252
g1
((lp1253
g189
atp1254
Rp1255
sS'7437'
p1256
g1
((lp1257
g67
atp1258
Rp1259
sS'PF'
p1260
g1
((lp1261
g227
atp1262
Rp1263
sS'PG'
p1264
g1
((lp1265
g212
atp1266
Rp1267
sS'0)'
p1268
g1
((lp1269
g255
atp1270
Rp1271
sS'7438'
p1272
g1
((lp1273
g116
atp1274
Rp1275
sS'$60'
p1276
g1
((lp1277
g299
atp1278
Rp1279
sS'PA46'
p1280
g1
((lp1281
g56
atp1282
Rp1283
sS'PROCARDIA'
p1284
g1
((lp1285
g275
atp1286
Rp1287
sS'SOLVAY'
p1288
g1
((lp1289
g296
atp1290
Rp1291
sS'cor'
p1292
g1
((lp1293
g99
ag140
atp1294
Rp1295
sS'TV/7796'
p1296
g1
((lp1297
g27
atp1298
Rp1299
sS'TV/7795'
p1300
g1
((lp1301
g271
atp1302
Rp1303
sS'8815'
p1304
g1
((lp1305
g52
atp1306
Rp1307
sS'21/2'
p1308
g1
((lp1309
g14
atp1310
Rp1311
sS'LCI'
p1312
g1
((lp1313
g85
atp1314
Rp1315
sS'576'
p1316
g1
((lp1317
S'00093-0576-06'
p1318
atp1319
Rp1320
sS'60'
p1321
g1
((lp1322
g154
ag299
atp1323
Rp1324
sS'63'
p1325
g1
((lp1326
g236
atp1327
Rp1328
sS'65'
p1329
g1
((lp1330
g127
atp1331
Rp1332
sS'3002'
p1333
g1
((lp1334
g156
atp1335
Rp1336
sS'3167'
p1337
g1
((lp1338
g242
atp1339
Rp1340
sS'250'
p1341
g1
((lp1342
g223
ag326
atp1343
Rp1344
sS'Sy18'
p1345
g1
((lp1346
g16
atp1347
Rp1348
sS'ETO'
p1349
g1
((lp1350
g183
atp1351
Rp1352
sS'3160'
p1353
g1
((lp1354
g73
atp1355
Rp1356
sS'1.1'
p1357
g1
((lp1358
g138
atp1359
Rp1360
sS'C)'
p1361
g1
((lp1362
g88
atp1363
Rp1364
sS'735'
p1365
g1
((lp1366
g310
atp1367
Rp1368
sS'738'
p1369
g1
((lp1370
g260
ag315
atp1371
Rp1372
sS'2.5/1000'
p1373
g1
((lp1374
S'00003-4222-16'
p1375
atp1376
Rp1377
sS'503'
p1378
g1
((lp1379
g75
atp1380
Rp1381
sS'500'
p1382
g1
((lp1383
g22
ag102
atp1384
Rp1385
sS'633'
p1386
g1
((lp1387
g248
atp1388
Rp1389
sS'634'
p1390
g1
((lp1391
g114
atp1392
Rp1393
sS'635'
p1394
g1
((lp1395
g62
atp1396
Rp1397
sS'WARFARI'
p1398
g1
((lp1399
g301
ag320
atp1400
Rp1401
sS'L1232'
p1402
g1
((lp1403
g65
atp1404
Rp1405
sS'N'
p1406
g1
((lp1407
g93
ag212
ag141
atp1408
Rp1409
sS'ROCHE'
p1410
g1
((lp1411
g97
atp1412
Rp1413
sS'165'
p1414
g1
((lp1415
g281
atp1416
Rp1417
sS'CO1'
p1418
g1
((lp1419
g246
atp1420
Rp1421
sS'6G'
p1422
g1
((lp1423
g173
atp1424
Rp1425
sS'936'
p1426
g1
((lp1427
g17
atp1428
Rp1429
sS'075'
p1430
g1
((lp1431
g311
atp1432
Rp1433
sS'071'
p1434
g1
((lp1435
g145
atp1436
Rp1437
sS'7202'
p1438
g1
((lp1439
g142
atp1440
Rp1441
sS'9'
p1442
g1
((lp1443
g226
ag72
ag231
ag180
ag170
ag726
ag273
ag379
ag727
ag280
ag209
ag267
ag144
atp1444
Rp1445
sS'VA'
p1446
g1
((lp1447
g268
ag79
atp1448
Rp1449
sS'894'
p1450
g1
((lp1451
g262
atp1452
Rp1453
sS'mg1021'
p1454
g1
((lp1455
g165
atp1456
Rp1457
sS'IP'
p1458
g1
((lp1459
g187
atp1460
Rp1461
sS'7326'
p1462
g1
((lp1463
g12
atp1464
Rp1465
sS'002'
p1466
g1
((lp1467
g115
atp1468
Rp1469
sS'VR'
p1470
g1
((lp1471
g93
atp1472
Rp1473
sS'006'
p1474
g1
((lp1475
g198
atp1476
Rp1477
sS'7336'
p1478
g1
((lp1479
g91
atp1480
Rp1481
sS'7335'
p1482
g1
((lp1483
g293
atp1484
Rp1485
sS'7334'
p1486
g1
((lp1487
g129
atp1488
Rp1489
sS'3229'
p1490
g1
((lp1491
g202
atp1492
Rp1493
sS'3228'
p1494
g1
((lp1495
g89
atp1496
Rp1497
sS'PLIVA'
p1498
g1
((lp1499
g70
ag40
atp1500
Rp1501
sS'7338'
p1502
g1
((lp1503
g274
atp1504
Rp1505
sS'357'
p1506
g1
((lp1507
g264
atp1508
Rp1509
sS'808'
p1510
g1
((lp1511
g111
atp1512
Rp1513
sS'802'
p1514
g1
((lp1515
g33
atp1516
Rp1517
sS'800'
p1518
g1
((lp1519
g69
atp1520
Rp1521
sS'ARO'
p1522
g1
((lp1523
g301
ag51
atp1524
Rp1525
sS'212'
p1526
g1
((lp1527
g187
atp1528
Rp1529
sS'213'
p1530
g1
((lp1531
g230
atp1532
Rp1533
sS'OBUTI'
p1534
g1
((lp1535
g652
atp1536
Rp1537
sS'4'
p1538
g1
((lp1539
g63
ag318
ag234
ag519
atp1540
Rp1541
sS'5'
p1542
g1
((lp1543
g179
ag308
ag106
ag583
ag38
ag104
ag279
ag209
ag1189
atp1544
Rp1545
sS'4338'
p1546
g1
((lp1547
g179
atp1548
Rp1549
sS'4336'
p1550
g1
((lp1551
g108
atp1552
Rp1553
sS'amg'
p1554
g1
((lp1555
g252
atp1556
Rp1557
sS'260'
p1558
g1
((lp1559
g275
atp1560
Rp1561
sS'59'
p1562
g1
((lp1563
g282
atp1564
Rp1565
sS'54'
p1566
g1
((lp1567
g230
ag250
atp1568
Rp1569
sS'50'
p1570
g1
((lp1571
g214
ag115
ag215
ag269
ag208
ag206
ag133
atp1572
Rp1573
sS'BVF'
p1574
g1
((lp1575
g6
ag279
ag10
ag146
atp1576
Rp1577
sS'531'
p1578
g1
((lp1579
g113
atp1580
Rp1581
sS'OS'
p1582
g1
((lp1583
g61
ag32
atp1584
Rp1585
sS'OP'
p1586
g1
((lp1587
g295
ag131
atp1588
Rp1589
sS'5011'
p1590
g1
((lp1591
g20
atp1592
Rp1593
sS'FLZ'
p1594
g1
((lp1595
g256
atp1596
Rp1597
sS'5150'
p1598
g1
((lp1599
S'00074-3020-11'
p1600
atp1601
Rp1602
sS'980'
p1603
g1
((lp1604
g259
atp1605
Rp1606
sS'987'
p1607
g1
((lp1608
g195
atp1609
Rp1610
sS'112'
p1611
g1
((lp1612
g218
atp1613
Rp1614
sS'Pharmaci'
p1615
g1
((lp1616
g220
atp1617
Rp1618
sS'3165'
p1619
g1
((lp1620
g82
atp1621
Rp1622
sS'257'
p1623
g1
((lp1624
g210
atp1625
Rp1626
sS'TEVA'
p1627
g1
((lp1628
g121
aS'00093-0576-06'
p1629
ag254
ag129
ag306
ag134
ag190
ag132
aS'00093-4030-01'
p1630
ag199
ag77
ag126
ag47
ag137
ag139
ag52
ag143
ag293
ag294
ag222
ag150
ag238
ag182
ag159
ag232
ag164
ag82
ag167
ag241
ag1005
ag91
atp1631
Rp1632
sS'30O'
p1633
g1
((lp1634
g145
atp1635
Rp1636
sS'421'
p1637
g1
((lp1638
g48
atp1639
Rp1640
sS'828'
p1641
g1
((lp1642
g86
atp1643
Rp1644
sS'Pfirer'
p1645
g1
((lp1646
g309
atp1647
Rp1648
sS'DISTA'
p1649
g1
((lp1650
g103
atp1651
Rp1652
sS'BVE'
p1653
g1
((lp1654
g6
atp1655
Rp1656
sS'300'
p1657
g1
((lp1658
g6
ag201
ag80
atp1659
Rp1660
sS'302'
p1661
g1
((lp1662
g133
ag112
atp1663
Rp1664
sS'303'
p1665
g1
((lp1666
g61
atp1667
Rp1668
sS'304'
p1669
g1
((lp1670
g32
atp1671
Rp1672
sS'O'
p1673
g1
((lp1674
g285
atp1675
Rp1676
sS'040'
p1677
g1
((lp1678
g64
atp1679
Rp1680
sS'\xd0\x90'
p1681
g1
((lp1682
g242
atp1683
Rp1684
sS'Zenith'
p1685
g1
((lp1686
g215
atp1687
Rp1688
sS'7370'
p1689
g1
((lp1690
g238
atp1691
Rp1692
sS'848'
p1693
g1
((lp1694
g223
atp1695
Rp1696
sS'75mg'
p1697
g1
((lp1698
g1005
atp1699
Rp1700
sS'\xe3\x81\xa811'
p1701
g1
((lp1702
g8
atp1703
Rp1704
sS'3MG'
p1705
g1
((lp1706
S'54092-0517-02'
p1707
atp1708
Rp1709
sS'os'
p1710
g1
((lp1711
g112
atp1712
Rp1713
sS'2929'
p1714
g1
((lp1715
g257
atp1716
Rp1717
sS'2779'
p1718
g1
((lp1719
g160
atp1720
Rp1721
sS'Pizer'
p1722
g1
((lp1723
g212
atp1724
Rp1725
sS'WARFARIA'
p1726
g1
((lp1727
g21
atp1728
Rp1729
sS'3210'
p1730
g1
((lp1731
g196
atp1732
Rp1733
sS'4067'
p1734
g1
((lp1735
g137
atp1736
Rp1737
sS'4068'
p1738
g1
((lp1739
g139
atp1740
Rp1741
sS'NC'
p1742
g1
((lp1743
g11
atp1744
Rp1745
sS'BMOS'
p1746
g1
((lp1747
g284
atp1748
Rp1749
sS'757'
p1750
g1
((lp1751
g225
atp1752
Rp1753
sS'756'
p1754
g1
((lp1755
g240
atp1756
Rp1757
sS'759'
p1758
g1
((lp1759
g197
atp1760
Rp1761
sS'3171'
p1762
g1
((lp1763
g199
atp1764
Rp1765
sS'N2'
p1766
g1
((lp1767
g43
atp1768
Rp1769
sS'2212'
p1770
g1
((lp1771
g117
atp1772
Rp1773
sS'1026'
p1774
g1
((lp1775
g237
atp1776
Rp1777
sS'1020'
p1778
g1
((lp1779
g84
atp1780
Rp1781
sS'1022'
p1782
g1
((lp1783
g252
atp1784
Rp1785
sS'AMOX'
p1786
g1
((lp1787
g223
atp1788
Rp1789
sS'EXIU'
p1790
g1
((lp1791
g286
atp1792
Rp1793
sS'\xe3\x81\xae1'
p1794
g1
((lp1795
g88
atp1796
Rp1797
sS'2427-28'
p1798
g1
((lp1799
g208
atp1800
Rp1801
sS'150'
p1802
g1
((lp1803
g153
ag312
atp1804
Rp1805
sS'153'
p1806
g1
((lp1807
g224
atp1808
Rp1809
sS'602'
p1810
g1
((lp1811
g250
atp1812
Rp1813
sS'WATSO'
p1814
g1
((lp1815
g9
atp1816
Rp1817
sS'CN'
p1818
g1
((lp1819
g104
atp1820
Rp1821
sS'3109'
p1822
g1
((lp1823
g164
atp1824
Rp1825
sS'3196'
p1826
g1
((lp1827
g151
atp1828
Rp1829
sS'TV'
p1830
g1
((lp1831
g228
atp1832
Rp1833
sS'3105'
p1834
g1
((lp1835
g103
atp1836
Rp1837
sS'A18'
p1838
g1
((lp1839
g228
atp1840
Rp1841
sS'40'
p1842
g1
((lp1843
g286
ag168
atp1844
Rp1845
sS'41'
p1846
g1
((lp1847
g229
atp1848
Rp1849
sS'A5'
p1850
g1
((lp1851
g83
atp1852
Rp1853
sS'%150'
p1854
g1
((lp1855
S'00172-5412-79'
p1856
atp1857
Rp1858
sS'MYCO'
p1859
g1
((lp1860
g220
atp1861
Rp1862
sS'E'
p1863
g1
((lp1864
g268
atp1865
Rp1866
sS'a&'
p1867
g1
((lp1868
g652
atp1869
Rp1870
sS'a0'
p1871
g1
((lp1872
g170
atp1873
Rp1874
sS'/52'
p1875
g1
((lp1876
S'00093-0752-01'
p1877
atp1878
Rp1879
sS'C04'
p1880
g1
((lp1881
g78
atp1882
Rp1883
sS'482'
p1884
g1
((lp1885
g49
atp1886
Rp1887
sS'590'
p1888
g1
((lp1889
g276
atp1890
Rp1891
sS'10/8'
p1892
g1
((lp1893
g263
atp1894
Rp1895
sS'2002'
p1896
g1
((lp1897
g258
atp1898
Rp1899
sS'2003'
p1900
g1
((lp1901
g63
atp1902
Rp1903
sS'3195'
p1904
g1
((lp1905
g134
atp1906
Rp1907
sS'3193'
p1908
g1
((lp1909
g125
atp1910
Rp1911
sS'2004'
p1912
g1
((lp1913
g122
atp1914
Rp1915
sS'475'
p1916
g1
((lp1917
g76
atp1918
Rp1919
s.