ccollections
defaultdict
p0
(c__builtin__
set
p1
tp2
Rp3
S''
p4
g1
((lp5
S'00093-5119-98'
p6
aS'00093-2203-01'
p7
aS'50111-0393-01'
p8
aS'52544-0152-30'
p9
aS'00093-5117-98'
p10
aS'29033-0020-12'
p11
aS'00093-7326-01'
p12
aS'00378-0143-01'
p13
aS'00555-0832-02'
p14
aS'00603-5771-21'
p15
aS'00002-3238-30'
p16
aS'00555-1057-86'
p17
aS'00555-9009-42'
p18
aS'00781-2053-01'
p19
aS'00603-5165-32'
p20
aS'51672-4033-01'
p21
aS'00173-0933-08'
p22
aS'53489-0384-01'
p23
aS'00074-9189-90'
p24
aS'00093-2270-34'
p25
aS'00093-0771-98'
p26
aS'00093-7796-06'
p27
aS'00093-0148-01'
p28
aS'00591-2473-19'
p29
aS'00169-0081-81'
p30
aS'00093-0028-01'
p31
aS'65580-0304-03'
p32
aS'00591-0302-01'
p33
aS'00093-4030-01'
p34
aS'00093-7442-56'
p35
aS'00093-7178-01'
p36
aS'00093-7380-01'
p37
aS'63459-0700-60'
p38
aS'00228-2551-06'
p39
aS'50111-0326-01'
p40
aS'00093-7350-56'
p41
aS'50111-0647-01'
p42
aS'00149-0007-05'
p43
aS'62559-1507-00'
p44
aS'00781-1506-01'
p45
aS'00555-1056-86'
p46
aS'00093-3123-01'
p47
aS'66213-0421-10'
p48
aS'00378-3482-01'
p49
aS'00173-0758-60'
p50
aS'51672-4030-01'
p51
aS'00093-2075-01'
p52
aS'00555-0925-02'
p53
aS'00173-0562-00'
p54
aS'60505-1308-01'
p55
aS'50111-0851-01'
p56
aS'00173-0785-01'
p57
aS'50458-0925-50'
p58
aS'00093-4236-01'
p59
aS'00378-2537-01'
p60
aS'65580-0303-03'
p61
aS'00555-0635-09'
p62
aS'59762-2003-01'
p63
aS'60505-0146-00'
p64
aS'00093-4232-01'
p65
aS'00093-7227-72'
p66
aS'00093-7437-01'
p67
aS'00093-7383-01'
p68
aS'58468-0130-01'
p69
aS'50111-0325-01'
p70
aS'51285-0692-02'
p71
aS'50111-0468-01'
p72
aS'00093-3160-06'
p73
aS'00093-0311-01'
p74
aS'54092-0517-02'
p75
aS'00378-3475-01'
p76
aS'00093-7198-56'
p77
aS'68180-0480-01'
p78
aS'00093-0787-01'
p79
aS'00172-4358-46'
p80
aS'51285-0082-97'
p81
aS'00093-3165-01'
p82
aS'51285-0754-02'
p83
aS'00555-1020-01'
p84
aS'00527-1413-01'
p85
aS'00002-3250-30'
p86
aS'00093-8940-01'
p87
aS'00555-0066-02'
p88
aS'00002-3228-30'
p89
aS'25010-0205-15'
p90
aS'00093-7336-06'
p91
aS'00378-5123-01'
p92
aS'00078-0574-15'
p93
aS'00378-3205-01'
p94
aS'00093-0924-01'
p95
aS'00172-5034-60'
p96
aS'00004-0800-85'
p97
aS'50111-0328-01'
p98
aS'00781-1191-01'
p99
aS'00093-3127-01'
p100
aS'59762-5033-02'
p101
aS'00093-5711-01'
p102
aS'00777-3105-02'
p103
aS'00054-4182-25'
p104
aS'68968-3500-01'
p105
aS'00093-7254-01'
p106
aS'00555-0886-02'
p107
aS'00093-4336-01'
p108
aS'00003-4222-16'
p109
aS'00172-7312-46'
p110
aS'00555-0808-02'
p111
aS'65580-0302-03'
p112
aS'00781-2201-01'
p113
aS'00555-0634-02'
p114
aS'65197-0002-01'
p115
aS'00093-7438-01'
p116
aS'00093-2272-34'
p117
aS'00781-5189-01'
p118
aS'54092-0189-81'
p119
aS'00093-7466-98'
p120
aS'00093-4069-01'
p121
aS'59762-2004-01'
p122
aS'00555-0733-02'
p123
aS'00093-0657-01'
p124
aS'00093-3193-01'
p125
aS'00093-2080-01'
p126
aS'00093-0658-01'
p127
aS'00093-1044-01'
p128
aS'00093-7334-01'
p129
aS'00555-1055-86'
p130
aS'51285-0538-02'
p131
aS'00093-3125-01'
p132
aS'00555-0302-02'
p133
aS'00093-3195-01'
p134
aS'00037-2250-10'
p135
aS'49884-0652-01'
p136
aS'00093-4067-01'
p137
aS'50111-0324-01'
p138
aS'00093-4068-01'
p139
aS'64720-0323-10'
p140
aS'00078-0572-15'
p141
aS'00093-7202-98'
p142
aS'00093-3147-01'
p143
aS'00555-9012-58'
p144
aS'00555-0071-01'
p145
aS'00093-5118-98'
p146
aS'10144-0606-15'
p147
aS'00093-0928-06'
p148
aS'64764-0805-30'
p149
aS'00093-7671-01'
p150
aS'00093-3196-53'
p151
aS'00093-7325-01'
p152
aS'00173-0135-55'
p153
aS'00023-9350-07'
p154
aS'00378-3495-01'
p155
aS'00093-3002-56'
p156
aS'00781-5187-01'
p157
aS'00555-0059-02'
p158
aS'00093-5256-68'
p159
aS'00228-2779-11'
p160
aS'10144-0602-15'
p161
aS'00093-1052-01'
p162
aS'00781-5186-01'
p163
aS'00093-3109-53'
p164
aS'00555-1021-01'
p165
aS'00832-1024-00'
p166
aS'00093-7670-01'
p167
aS'68012-0104-30'
p168
aS'00555-1883-02'
p169
aS'00555-0589-01'
p170
aS'00378-1010-01'
p171
aS'00378-0183-01'
p172
aS'00781-5181-01'
p173
aS'00591-0388-01'
p174
aS'00093-7386-56'
p175
aS'00009-7663-04'
p176
aS'00093-7270-98'
p177
aS'47335-0580-81'
p178
aS'00093-4338-01'
p179
aS'00093-0576-06'
p180
aS'66582-0313-31'
p181
aS'00093-5506-56'
p182
aS'51672-4016-01'
p183
aS'00555-0323-02'
p184
aS'00093-4741-01'
p185
aS'00002-3251-30'
p186
aS'65162-0212-11'
p187
aS'00781-5183-01'
p188
aS'00093-7436-01'
p189
aS'00093-5507-56'
p190
aS'00145-3817-03'
p191
aS'00555-0874-02'
p192
aS'00172-5413-46'
p193
aS'00093-0054-01'
p194
aS'00555-9016-58'
p195
aS'00591-3210-60'
p196
aS'41616-0759-83'
p197
aS'59148-0006-13'
p198
aS'00093-3171-01'
p199
aS'00172-4960-58'
p200
aS'43386-0660-24'
p201
aS'00002-3229-30'
p202
aS'00310-0282-60'
p203
aS'00555-0869-02'
p204
aS'00074-1973-54'
p205
aS'00093-4404-01'
p206
aS'59762-5021-01'
p207
aS'47781-0307-01'
p208
aS'00093-0813-01'
p209
aS'00143-1257-01'
p210
aS'00093-4405-01'
p211
aS'00071-1015-68'
p212
aS'00093-1024-06'
p213
aS'00093-0812-01'
p214
aS'00093-2130-01'
p215
aS'00093-7772-01'
p216
aS'63304-0693-01'
p217
aS'00781-5185-01'
p218
aS'00093-0012-98'
p219
aS'00013-5301-17'
p220
aS'00555-0513-02'
p221
aS'00093-4029-01'
p222
aS'00781-2020-05'
p223
aS'53489-0531-01'
p224
aS'00093-0757-01'
p225
aS'00591-5694-01'
p226
aS'00187-0844-01'
p227
aS'00093-5353-01'
p228
aS'50111-0470-01'
p229
aS'00054-2526-25'
p230
aS'00555-9025-42'
p231
aS'00093-0926-06'
p232
aS'00093-4339-01'
p233
aS'00378-6440-01'
p234
aS'00555-9010-58'
p235
aS'00093-1063-01'
p236
aS'00093-1026-06'
p237
aS'00093-7370-01'
p238
aS'00555-0834-02'
p239
aS'00093-0756-01'
p240
aS'00093-0810-01'
p241
aS'00093-3167-53'
p242
aS'00173-0759-60'
p243
aS'50111-0852-01'
p244
aS'00093-4356-01'
p245
aS'65597-0701-18'
p246
aS'00186-0520-60'
p247
aS'00555-0633-02'
p248
aS'00781-2054-01'
p249
aS'00054-0109-25'
p250
aS'50458-0551-01'
p251
aS'00555-1022-01'
p252
aS'00555-0324-02'
p253
aS'00093-5504-56'
p254
aS'00074-3040-11'
p255
aS'59762-5018-01'
p256
aS'00093-2929-01'
p257
aS'59762-2002-01'
p258
aS'00555-0980-37'
p259
aS'00781-1787-01'
p260
aS'00172-7310-46'
p261
aS'47335-0894-81'
p262
aS'23635-0108-20'
p263
aS'00603-3856-21'
p264
aS'00145-0091-25'
p265
aS'00781-1146-01'
p266
aS'00555-9026-58'
p267
aS'00093-0752-01'
p268
aS'00172-7311-46'
p269
aS'00093-1005-01'
p270
aS'00093-7795-06'
p271
aS'00093-5142-56'
p272
aS'00093-0811-01'
p273
aS'00093-7338-01'
p274
aS'00069-2600-66'
p275
aS'00555-0590-01'
p276
aS'00555-0882-02'
p277
aS'00378-0310-01'
p278
aS'00093-5112-98'
p279
aS'00093-0149-01'
p280
aS'00781-5046-01'
p281
aS'00555-0859-02'
p282
aS'53489-0648-01'
p283
aS'00832-1080-00'
p284
aS'51285-0691-02'
p285
aS'00186-5040-31'
p286
aS'00093-3129-01'
p287
aS'50111-0901-01'
p288
aS'49230-0640-21'
p289
aS'00093-1060-01'
p290
aS'59762-2858-01'
p291
aS'00172-5032-60'
p292
aS'00093-7335-06'
p293
aS'00093-7443-56'
p294
aS'51285-0539-02'
p295
aS'00074-3020-11'
p296
aS'00173-0565-04'
p297
aS'00591-5554-01'
p298
aS'00002-3239-30'
p299
aS'00093-4235-01'
p300
aS'51672-4032-01'
p301
aS'00555-0588-01'
p302
aS'60505-0065-00'
p303
aS'60505-0065-01'
p304
aS'00093-4234-01'
p305
aS'00093-5505-56'
p306
aS'00228-2550-06'
p307
aS'00172-5412-79'
p308
aS'00071-1017-68'
p309
aS'00555-9034-58'
p310
aS'16110-0075-01'
p311
aS'00173-0556-02'
p312
aS'00093-5141-56'
p313
aS'52544-0291-28'
p314
aS'00093-7381-01'
p315
aS'00093-5140-56'
p316
aS'00093-7385-56'
p317
aS'53014-0404-10'
p318
aS'00172-2083-60'
p319
aS'51672-4029-01'
p320
aS'00173-0755-00'
p321
atp322
Rp323
sS'S429'
p324
g1
((lp325
S'54092-0189-81'
p326
atp327
Rp328
sS'3147 3147'
p329
g1
((lp330
S'00093-3147-01'
p331
atp332
Rp333
sS'1.17.5m'
p334
g1
((lp335
g191
atp336
Rp337
sS'JN9'
p338
g1
((lp339
g147
atp340
Rp341
sS'WAREARIR'
p342
g1
((lp343
g51
atp344
Rp345
sS'TEVA 3195'
p346
g1
((lp347
g134
atp348
Rp349
sS'3250'
p350
g1
((lp351
g86
atp352
Rp353
sS'TEVA 7198'
p354
g1
((lp355
g77
atp356
Rp357
sS'0'
p358
g1
((lp359
g124
ag286
ag318
ag276
ag226
atp360
Rp361
sS'812'
p362
g1
((lp363
g214
atp364
Rp365
sS'2858'
p366
g1
((lp367
g291
atp368
Rp369
sS'\xe3\x83\x90D'
p370
g1
((lp371
g30
atp372
Rp373
sS'O2L'
p374
g1
((lp375
g213
atp376
Rp377
sS'GC'
p378
g1
((lp379
g45
atp380
Rp381
sS'93 63'
p382
g1
((lp383
g236
atp384
Rp385
sS'JNZ'
p386
g1
((lp387
g161
atp388
Rp389
sS'Go'
p390
g1
((lp391
S'52544-0152-30'
p392
atp393
Rp394
sS'290'
p395
g1
((lp396
g193
atp397
Rp398
sS'EVI'
p399
g1
((lp400
g7
ag120
atp401
Rp402
sS'\xe3\x82\x938,'
p403
g1
((lp404
g149
atp405
Rp406
sS'EVA'
p407
g1
((lp408
g26
ag194
atp409
Rp410
sS'OP 719'
p411
g1
((lp412
g295
atp413
Rp414
sS'OP 718'
p415
g1
((lp416
g131
atp417
Rp418
sS'WAISON'
p419
g1
((lp420
g174
atp421
Rp422
sS'100 mg'
p423
g1
((lp424
g110
atp425
Rp426
sS'25mg'
p427
g1
((lp428
g265
ag261
atp429
Rp430
sS'500'
p431
g1
((lp432
g102
atp433
Rp434
sS'TEVA 7370'
p435
g1
((lp436
g238
atp437
Rp438
sS'4356'
p439
g1
((lp440
g245
atp441
Rp442
sS'barr 882'
p443
g1
((lp444
g277
atp445
Rp446
sS'828 80 mg'
p447
g1
((lp448
g86
atp449
Rp450
sS'37'
p451
g1
((lp452
g60
atp453
Rp454
sS'N V R'
p455
g1
((lp456
g141
atp457
Rp458
sS'[4339'
p459
g1
((lp460
g233
atp461
Rp462
sS'CTA'
p463
g1
((lp464
g50
atp465
Rp466
sS'14 9'
p467
g1
((lp468
g280
atp469
Rp470
sS'6'
p471
g1
((lp472
g279
ag10
ag72
ag234
atp473
Rp474
sS'50 mg WPC 002'
p475
g1
((lp476
g115
atp477
Rp478
sS'Novel'
p479
g1
((lp480
g201
atp481
Rp482
sS'24 amg 1022'
p483
g1
((lp484
g252
atp485
Rp486
sS'NVN2'
p487
g1
((lp488
g105
atp489
Rp490
sS'93'
p491
g1
((lp492
g317
ag156
aS'00093-3167-53'
p493
ag189
ag116
aS'00093-2272-34'
p494
ag175
aS'00093-5142-56'
p495
ag313
aS'00093-0657-01'
p496
ag274
ag67
ag287
ag331
ag41
ag225
ag151
ag66
aS'00093-7370-01'
p497
ag214
ag73
ag74
aS'00093-3165-01'
p498
ag240
ag316
atp499
Rp500
sS'2270'
p501
g1
((lp502
g25
atp503
Rp504
sS'3205 3205'
p505
g1
((lp506
g94
atp507
Rp508
sS'TEVA 4029'
p509
g1
((lp510
g222
atp511
Rp512
sS'SA'
p513
g1
((lp514
g153
atp515
Rp516
sS'323 25'
p517
g1
((lp518
g184
atp519
Rp520
sS'551'
p521
g1
((lp522
g39
atp523
Rp524
sS'550'
p525
g1
((lp526
g307
atp527
Rp528
sS'\xd0\xa2\xd0\x95 \xd0\x90'
p529
g1
((lp530
g242
atp531
Rp532
sS'236'
p533
g1
((lp534
g59
atp535
Rp536
sS'93-5'
p537
g1
((lp538
g270
atp539
Rp540
sS'1052'
p541
g1
((lp542
g162
atp543
Rp544
sS'PGN'
p545
g1
((lp546
g212
ag309
atp547
Rp548
sS'7178'
p549
g1
((lp550
g36
atp551
Rp552
sS'1'
p553
g1
((lp554
S'00093-0811-01'
p555
ag23
ag497
atp556
Rp557
sS'$60 mg'
p558
g1
((lp559
g299
atp560
Rp561
sS'C) \xe3\x81\xae1'
p562
g1
((lp563
g88
atp564
Rp565
sS'DYRENIUM'
p566
g1
((lp567
g115
atp568
Rp569
sS'142'
p570
g1
((lp571
g272
atp572
Rp573
sS'143'
p574
g1
((lp575
g13
atp576
Rp577
sS'MYLAN MYLAN'
p578
g1
((lp579
g13
ag60
atp580
Rp581
sS'E VA'
p582
g1
((lp583
g268
atp584
Rp585
sS'a& Upjoh'
p586
g1
((lp587
S'00013-5301-17'
p588
atp589
Rp590
sS'624 624'
p591
g1
((lp592
g249
atp593
Rp594
sS'\xd1\x8c 980'
p595
g1
((lp596
g259
atp597
Rp598
sS'MYLANMYLAN'
p599
g1
((lp600
g94
atp601
Rp602
sS'halon'
p603
g1
((lp604
S'63459-0700-60'
p605
atp606
Rp607
sS'949'
p608
g1
((lp609
g18
ag235
atp610
Rp611
sS'2083'
p612
g1
((lp613
g319
atp614
Rp615
sS'240 240'
p616
g1
((lp617
g146
atp618
Rp619
sS'54 213'
p620
g1
((lp621
g230
atp622
Rp623
sS'ZYBAN'
p624
g1
((lp625
g312
atp626
Rp627
sS'2537'
p628
g1
((lp629
g60
atp630
Rp631
sS'092'
p632
g1
((lp633
g95
atp634
Rp635
sS'WATSON'
p636
g1
((lp637
g196
atp638
Rp639
sS'93 93'
p640
g1
((lp641
g100
ag125
aS'00093-3171-01'
p642
aS'00093-5256-68'
p643
atp644
Rp645
sS'135'
p646
g1
((lp647
g24
atp648
Rp649
sS'54 602'
p650
g1
((lp651
g250
atp652
Rp653
sS'7380'
p654
g1
((lp655
g37
atp656
Rp657
sS'7386'
p658
g1
((lp659
g175
atp660
Rp661
sS'4222'
p662
g1
((lp663
g109
atp664
Rp665
sS'7385'
p666
g1
((lp667
g317
atp668
Rp669
sS'20'
p670
g1
((lp671
g172
atp672
Rp673
sS'23'
p674
g1
((lp675
S'00093-4236-01'
p676
atp677
Rp678
sS'832 21/2'
p679
g1
((lp680
g14
atp681
Rp682
sS'16 mg1021'
p683
g1
((lp684
g165
atp685
Rp686
sS'28'
p687
g1
((lp688
g31
atp689
Rp690
sS'60 mg'
p691
g1
((lp692
g299
atp693
Rp694
sS'ONOD'
p695
g1
((lp696
g311
atp697
Rp698
sS'2010'
p699
g1
((lp700
g119
atp701
Rp702
sS'0844'
p703
g1
((lp704
g227
atp705
Rp706
sS'020'
p707
g1
((lp708
g207
atp709
Rp710
sS'LEYAQUIN'
p711
g1
((lp712
g58
atp713
Rp714
sS'SANKYO'
p715
g1
((lp716
g246
atp717
Rp718
sS'250 mg'
p719
g1
((lp720
g326
atp721
Rp722
sS'DISTA PROZAC'
p723
g1
((lp724
g103
atp725
Rp726
sS'TEVA 4067'
p727
g1
((lp728
g137
atp729
Rp730
sS'APO'
p731
g1
((lp732
g55
atp733
Rp734
sS'8 59'
p735
g1
((lp736
g282
atp737
Rp738
sS'TEVA 4069'
p739
g1
((lp740
g121
atp741
Rp742
sS'TEVA 4068'
p743
g1
((lp744
g139
atp745
Rp746
sS'377'
p747
g1
((lp748
g267
atp749
Rp750
sS'HDU'
p751
g1
((lp752
S'00078-0572-15'
p753
atp754
Rp755
sS'SOMA'
p756
g1
((lp757
g135
atp758
Rp759
sS'50/30'
p760
g1
((lp761
g314
atp762
Rp763
sS'TEVA 2080'
p764
g1
((lp765
g126
atp766
Rp767
sS'GG 310'
p768
g1
((lp769
g118
atp770
Rp771
sS'3127 3127'
p772
g1
((lp773
g100
atp774
Rp775
sS'110\xe9\xbe\x9b'
p776
g1
((lp777
g101
atp778
Rp779
sS'IEVA'
p780
g1
((lp781
g148
atp782
Rp783
sS'7'
p784
g1
((lp785
g239
ag209
ag30
atp786
Rp787
sS'0444'
p788
g1
((lp789
g128
atp790
Rp791
sS'588'
p792
g1
((lp793
g302
atp794
Rp795
sS'SEMPRE'
p796
g1
((lp797
g318
atp798
Rp799
sS'en,100 mg'
p800
g1
((lp801
g186
atp802
Rp803
sS'MACRODAN'
p804
g1
((lp805
g208
atp806
Rp807
sS'barr 1020'
p808
g1
((lp809
g84
atp810
Rp811
sS'513'
p812
g1
((lp813
g221
atp814
Rp815
sS'623'
p816
g1
((lp817
g19
atp818
Rp819
sS'/00'
p820
g1
((lp821
g71
atp822
Rp823
sS'590'
p824
g1
((lp825
g276
atp826
Rp827
sS'\xd0\xa0\xd0\x9083'
p828
g1
((lp829
g169
atp830
Rp831
sS'BUTR'
p832
g1
((lp833
g153
atp834
Rp835
sS'14 8'
p836
g1
((lp837
g28
atp838
Rp839
sS'096t'
p840
g1
((lp841
g200
atp842
Rp843
sS'1O'
p844
g1
((lp845
g298
atp846
Rp847
sS'MUTUAL'
p848
g1
((lp849
g283
atp850
Rp851
sS'barr 633'
p852
g1
((lp853
g248
atp854
Rp855
sS'barr 634'
p856
g1
((lp857
g114
atp858
Rp859
sS'barr 635'
p860
g1
((lp861
g62
atp862
Rp863
sS'HP/CP'
p864
g1
((lp865
g263
atp866
Rp867
sS'832'
p868
g1
((lp869
g166
ag284
atp870
Rp871
sS'978'
p872
g1
((lp873
g81
atp874
Rp875
sS'657'
p876
g1
((lp877
g124
atp878
Rp879
sS'180'
p880
g1
((lp881
g10
atp882
Rp883
sS'2'
p884
g1
((lp885
g177
ag50
ag216
ag555
ag98
ag209
atp886
Rp887
sS'652'
p888
g1
((lp889
g136
atp890
Rp891
sS'-R 2779'
p892
g1
((lp893
g160
atp894
Rp895
sS'xR'
p896
g1
((lp897
g321
atp898
Rp899
sS'93/12'
p900
g1
((lp901
g219
atp902
Rp903
sS'1507'
p904
g1
((lp905
g44
atp906
Rp907
sS'4030 4030'
p908
g1
((lp909
g34
atp910
Rp911
sS'7350'
p912
g1
((lp913
g41
atp914
Rp915
sS'TEVA 3123'
p916
g1
((lp917
g47
atp918
Rp919
sS'TEVA 3125'
p920
g1
((lp921
g132
atp922
Rp923
sS'XR'
p924
g1
((lp925
g243
ag50
atp926
Rp927
sS'6wL99'
p928
g1
((lp929
g289
atp930
Rp931
sS'10'
p932
g1
((lp933
g101
atp934
Rp935
sS'17'
p936
g1
((lp937
g83
atp938
Rp939
sS'18'
p940
g1
((lp941
g23
atp942
Rp943
sS'7436 7436'
p944
g1
((lp945
g189
atp946
Rp947
sS'RENVELA'
p948
g1
((lp949
g69
atp950
Rp951
sS'866'
p952
g1
((lp953
g283
atp954
Rp955
sS'SAN 60'
p956
g1
((lp957
g154
atp958
Rp959
sS'3193 3193'
p960
g1
((lp961
g125
atp962
Rp963
sS'886'
p964
g1
((lp965
g107
atp966
Rp967
sS'TEVA 7334'
p968
g1
((lp969
g129
atp970
Rp971
sS'756'
p972
g1
((lp973
g240
atp974
Rp975
sS'7325'
p976
g1
((lp977
g152
atp978
Rp979
sS'7326'
p980
g1
((lp981
g12
atp982
Rp983
sS'3238'
p984
g1
((lp985
g16
atp986
Rp987
sS'0810'
p988
g1
((lp989
g241
atp990
Rp991
sS'323'
p992
g1
((lp993
g299
atp994
Rp995
sS'326'
p996
g1
((lp997
g40
atp998
Rp999
sS'324'
p1000
g1
((lp1001
g253
atp1002
Rp1003
sS'325'
p1004
g1
((lp1005
g186
ag70
atp1006
Rp1007
sS'TEVA 4030'
p1008
g1
((lp1009
S'00093-4030-01'
p1010
atp1011
Rp1012
sS'RX693 RX693'
p1013
g1
((lp1014
g217
atp1015
Rp1016
sS'200'
p1017
g1
((lp1018
g211
ag11
ag203
aS'00781-5189-01'
p1019
atp1020
Rp1021
sS'S23'
p1022
g1
((lp1023
g92
atp1024
Rp1025
sS'75'
p1026
g1
((lp1027
g311
atp1028
Rp1029
sS'70'
p1030
g1
((lp1031
g57
atp1032
Rp1033
sS'940 200'
p1034
g1
((lp1035
g87
atp1036
Rp1037
sS'7663'
p1038
g1
((lp1039
g176
atp1040
Rp1041
sS'PA1000'
p1042
g1
((lp1043
g288
atp1044
Rp1045
sS'\xe5\xaf\xb8'
p1046
g1
((lp1047
g42
atp1048
Rp1049
sS'TARO'
p1050
g1
((lp1051
g320
ag21
atp1052
Rp1053
sS'3160 3160'
p1054
g1
((lp1055
g73
atp1056
Rp1057
sS'5256 5256'
p1058
g1
((lp1059
g643
atp1060
Rp1061
sS'2233'
p1062
g1
((lp1063
g29
atp1064
Rp1065
sS'IP 212'
p1066
g1
((lp1067
g187
atp1068
Rp1069
sS'PA2120'
p1070
g1
((lp1071
g244
atp1072
Rp1073
sS'358'
p1074
g1
((lp1075
S'00172-4358-46'
p1076
atp1077
Rp1078
sS'ETO 200 MG'
p1079
g1
((lp1080
g183
atp1081
Rp1082
sS'2003 2003'
p1083
g1
((lp1084
g63
atp1085
Rp1086
sS'TEVA 10mg'
p1087
g1
((lp1088
g241
atp1089
Rp1090
sS'500 mg'
p1091
g1
((lp1092
g22
atp1093
Rp1094
sS'50 mg'
p1095
g1
((lp1096
g215
ag214
ag269
ag208
atp1097
Rp1098
sS'3129'
p1099
g1
((lp1100
g287
atp1101
Rp1102
sS'540'
p1103
g1
((lp1104
g43
atp1105
Rp1106
sS'20/12.5'
p1107
g1
((lp1108
g96
atp1109
Rp1110
sS'8'
p1111
g1
((lp1112
g15
atp1113
Rp1114
sS'MIC'
p1115
g1
((lp1116
g50
atp1117
Rp1118
sS'VICODN'
p1119
g1
((lp1120
g205
atp1121
Rp1122
sS'990'
p1123
g1
((lp1124
g88
atp1125
Rp1126
sS'LEA'
p1127
g1
((lp1128
g227
atp1129
Rp1130
sS'TEVA 3165'
p1131
g1
((lp1132
g82
atp1133
Rp1134
sS'120'
p1135
g1
((lp1136
g279
atp1137
Rp1138
sS'124'
p1139
g1
((lp1140
g178
atp1141
Rp1142
sS'4235'
p1143
g1
((lp1144
g300
atp1145
Rp1146
sS'4234'
p1147
g1
((lp1148
g305
atp1149
Rp1150
sS'51440'
p1151
g1
((lp1152
S'00093-5140-56'
p1153
atp1154
Rp1155
sS'TEVA 5505'
p1156
g1
((lp1157
g306
atp1158
Rp1159
sS'TEVA 5504'
p1160
g1
((lp1161
g254
atp1162
Rp1163
sS'TEVA 5507'
p1164
g1
((lp1165
g190
atp1166
Rp1167
sS'TEVA 5506'
p1168
g1
((lp1169
g182
atp1170
Rp1171
sS'1010'
p1172
g1
((lp1173
g171
atp1174
Rp1175
sS'GXCE'
p1176
g1
((lp1177
g54
atp1178
Rp1179
sS'DYRENIUNM'
p1180
g1
((lp1181
g115
atp1182
Rp1183
sS'TEVA 317'
p1184
g1
((lp1185
g143
atp1186
Rp1187
sS'071 30O'
p1188
g1
((lp1189
g145
atp1190
Rp1191
sS'VALTREX'
p1192
g1
((lp1193
g22
ag297
atp1194
Rp1195
sS'arr'
p1196
g1
((lp1197
g302
ag276
ag221
atp1198
Rp1199
sS'barr'
p1200
g1
((lp1201
g184
ag133
ag165
atp1202
Rp1203
sS'art'
p1204
g1
((lp1205
g192
atp1206
Rp1207
sS'7227'
p1208
g1
((lp1209
g66
atp1210
Rp1211
sS'5 413'
p1212
g1
((lp1213
S'00172-5413-46'
p1214
atp1215
Rp1216
sS'5 412'
p1217
g1
((lp1218
g308
atp1219
Rp1220
sS'311'
p1221
g1
((lp1222
g74
atp1223
Rp1224
sS'PFIZER 260'
p1225
g1
((lp1226
g275
atp1227
Rp1228
sS'rm 9'
p1229
g1
((lp1230
g170
atp1231
Rp1232
sS'9 3'
p1233
g1
((lp1234
S'00093-0756-01'
p1235
atp1236
Rp1237
sS'65 8'
p1238
g1
((lp1239
g127
atp1240
Rp1241
sS'Pfirer 200'
p1242
g1
((lp1243
g309
atp1244
Rp1245
sS'495'
p1246
g1
((lp1247
g155
atp1248
Rp1249
sS'500/20'
p1250
g1
((lp1251
g247
atp1252
Rp1253
sS'barn'
p1254
g1
((lp1255
g53
atp1256
Rp1257
sS'02'
p1258
g1
((lp1259
g266
atp1260
Rp1261
sS'03'
p1262
g1
((lp1263
g189
atp1264
Rp1265
sS't VA'
p1266
g1
((lp1267
g79
atp1268
Rp1269
sS'06'
p1270
g1
((lp1271
g45
atp1272
Rp1273
sS'OBUTI'
p1274
g1
((lp1275
g588
atp1276
Rp1277
sS'TEVA 7671'
p1278
g1
((lp1279
g150
atp1280
Rp1281
sS'TEVA 7670'
p1282
g1
((lp1283
g167
atp1284
Rp1285
sS'3'
p1286
g1
((lp1287
g180
aS'00093-7326-01'
p1288
ag124
ag278
ag185
ag282
ag181
atp1289
Rp1290
sS'PF'
p1291
g1
((lp1292
g227
atp1293
Rp1294
sS'APO 040'
p1295
g1
((lp1296
g64
atp1297
Rp1298
sS'0)'
p1299
g1
((lp1300
g255
atp1301
Rp1302
sS'LA CN'
p1303
g1
((lp1304
g104
atp1305
Rp1306
sS'7383'
p1307
g1
((lp1308
g68
atp1309
Rp1310
sS'PA46'
p1311
g1
((lp1312
g56
atp1313
Rp1314
sS'PROCARDIA'
p1315
g1
((lp1316
g275
atp1317
Rp1318
sS'TEVA 8815'
p1319
g1
((lp1320
g52
atp1321
Rp1322
sS'SOLVAY'
p1323
g1
((lp1324
g296
atp1325
Rp1326
sS'cor'
p1327
g1
((lp1328
g99
ag140
atp1329
Rp1330
sS'TV/7796'
p1331
g1
((lp1332
g27
atp1333
Rp1334
sS'TV/7795'
p1335
g1
((lp1336
g271
atp1337
Rp1338
sS'N2 00'
p1339
g1
((lp1340
g43
atp1341
Rp1342
sS'2002 2002'
p1343
g1
((lp1344
g258
atp1345
Rp1346
sS'LCI'
p1347
g1
((lp1348
g85
atp1349
Rp1350
sS'576'
p1351
g1
((lp1352
S'00093-0576-06'
p1353
atp1354
Rp1355
sS'93 1060'
p1356
g1
((lp1357
g290
atp1358
Rp1359
sS'3002'
p1360
g1
((lp1361
g156
atp1362
Rp1363
sS'3167'
p1364
g1
((lp1365
g242
atp1366
Rp1367
sS'PAL6'
p1368
g1
((lp1369
g251
atp1370
Rp1371
sS'100'
p1372
g1
((lp1373
g212
ag123
atp1374
Rp1375
sS'735'
p1376
g1
((lp1377
g310
atp1378
Rp1379
sS'738'
p1380
g1
((lp1381
g260
ag315
atp1382
Rp1383
sS'2.5/1000'
p1384
g1
((lp1385
S'00003-4222-16'
p1386
atp1387
Rp1388
sS'503'
p1389
g1
((lp1390
g75
atp1391
Rp1392
sS'AMOX 250'
p1393
g1
((lp1394
g223
atp1395
Rp1396
sS'1 mg'
p1397
g1
((lp1398
g108
atp1399
Rp1400
sS'barr 454'
p1401
g1
((lp1402
g46
atp1403
Rp1404
sS'WARFARI'
p1405
g1
((lp1406
g301
ag320
atp1407
Rp1408
sS'L1232'
p1409
g1
((lp1410
g65
atp1411
Rp1412
sS'BVF BVF'
p1413
g1
((lp1414
g146
atp1415
Rp1416
sS'165'
p1417
g1
((lp1418
g281
atp1419
Rp1420
sS'CO1'
p1421
g1
((lp1422
g246
atp1423
Rp1424
sS'GG 848'
p1425
g1
((lp1426
g223
atp1427
Rp1428
sS'8 mg'
p1429
g1
((lp1430
g9
ag84
atp1431
Rp1432
sS'075'
p1433
g1
((lp1434
g311
atp1435
Rp1436
sS'Aeay25 mg'
p1437
g1
((lp1438
g89
atp1439
Rp1440
sS'TEVA 5256'
p1441
g1
((lp1442
g159
atp1443
Rp1444
sS'7202'
p1445
g1
((lp1446
g142
atp1447
Rp1448
sS'323 323'
p1449
g1
((lp1450
g140
atp1451
Rp1452
sS'9'
p1453
g1
((lp1454
g226
ag72
ag231
ag180
ag170
ag1288
ag273
ag605
ag209
ag267
ag144
atp1455
Rp1456
sS'200 mg'
p1457
g1
((lp1458
g302
atp1459
Rp1460
sS'894'
p1461
g1
((lp1462
g262
atp1463
Rp1464
sS'Sen40 mg'
p1465
g1
((lp1466
g202
atp1467
Rp1468
sS'7437 7437'
p1469
g1
((lp1470
g67
atp1471
Rp1472
sS'MYLAN'
p1473
g1
((lp1474
g171
atp1475
Rp1476
sS'006'
p1477
g1
((lp1478
g198
atp1479
Rp1480
sS'3229'
p1481
g1
((lp1482
g202
atp1483
Rp1484
sS'3228'
p1485
g1
((lp1486
g89
atp1487
Rp1488
sS'1.1 IV\xe2\x96\xb3'
p1489
g1
((lp1490
g138
atp1491
Rp1492
sS'7338'
p1493
g1
((lp1494
g274
atp1495
Rp1496
sS'357'
p1497
g1
((lp1498
g264
atp1499
Rp1500
sS'802'
p1501
g1
((lp1502
g33
atp1503
Rp1504
sS'800'
p1505
g1
((lp1506
g69
atp1507
Rp1508
sS'ARO'
p1509
g1
((lp1510
g301
ag51
atp1511
Rp1512
sS'10 mg'
p1513
g1
((lp1514
g233
atp1515
Rp1516
sS'GG 336'
p1517
g1
((lp1518
S'00781-5185-01'
p1519
atp1520
Rp1521
sS'GG 337'
p1522
g1
((lp1523
g163
atp1524
Rp1525
sS'GG 331'
p1526
g1
((lp1527
g188
atp1528
Rp1529
sS'GG 338'
p1530
g1
((lp1531
g157
atp1532
Rp1533
sS'4'
p1534
g1
((lp1535
g63
ag318
ag234
ag497
atp1536
Rp1537
sS'20/25'
p1538
g1
((lp1539
g292
atp1540
Rp1541
sS'TEVA 7443'
p1542
g1
((lp1543
g294
atp1544
Rp1545
sS'4338'
p1546
g1
((lp1547
g179
atp1548
Rp1549
sS'4336'
p1550
g1
((lp1551
g108
atp1552
Rp1553
sS'N VR'
p1554
g1
((lp1555
g93
atp1556
Rp1557
sS'ROCHE 75 mg'
p1558
g1
((lp1559
g97
atp1560
Rp1561
sS'6G 33'
p1562
g1
((lp1563
g173
atp1564
Rp1565
sS'50'
p1566
g1
((lp1567
g206
ag133
atp1568
Rp1569
sS'barr o59e'
p1570
g1
((lp1571
g158
atp1572
Rp1573
sS'BVF'
p1574
g1
((lp1575
g6
ag279
ag10
atp1576
Rp1577
sS'531'
p1578
g1
((lp1579
g113
atp1580
Rp1581
sS'OS'
p1582
g1
((lp1583
g61
ag32
atp1584
Rp1585
sS'5011'
p1586
g1
((lp1587
g20
atp1588
Rp1589
sS'5150'
p1590
g1
((lp1591
S'00074-3020-11'
p1592
atp1593
Rp1594
sS'987'
p1595
g1
((lp1596
g195
atp1597
Rp1598
sS'TEVA 3171'
p1599
g1
((lp1600
g199
atp1601
Rp1602
sS'barr 100'
p1603
g1
((lp1604
g253
atp1605
Rp1606
sS'112'
p1607
g1
((lp1608
g218
atp1609
Rp1610
sS'5'
p1611
g1
((lp1612
g106
ag555
ag38
ag104
ag279
ag209
atp1613
Rp1614
sS'Pharmaci'
p1615
g1
((lp1616
g220
atp1617
Rp1618
sS'869 2'
p1619
g1
((lp1620
g204
atp1621
Rp1622
sS'257'
p1623
g1
((lp1624
g210
atp1625
Rp1626
sS'TEVA'
p1627
g1
((lp1628
g232
aS'00093-0576-06'
p1629
atp1630
Rp1631
sS'a0 8'
p1632
g1
((lp1633
g170
atp1634
Rp1635
sS'421'
p1636
g1
((lp1637
g48
atp1638
Rp1639
sS'BVE'
p1640
g1
((lp1641
g6
atp1642
Rp1643
sS'APO 020'
p1644
g1
((lp1645
g303
ag304
atp1646
Rp1647
sS'300'
p1648
g1
((lp1649
g6
ag201
ag80
atp1650
Rp1651
sS'302'
p1652
g1
((lp1653
g133
ag112
atp1654
Rp1655
sS'303'
p1656
g1
((lp1657
g61
atp1658
Rp1659
sS'304'
p1660
g1
((lp1661
g32
atp1662
Rp1663
sS'Zenith'
p1664
g1
((lp1665
g215
atp1666
Rp1667
sS'7370'
p1668
g1
((lp1669
g497
atp1670
Rp1671
sS'75mg'
p1672
g1
((lp1673
S'00093-0813-01'
p1674
atp1675
Rp1676
sS'\xe3\x81\xa811'
p1677
g1
((lp1678
g8
atp1679
Rp1680
sS'3MG'
p1681
g1
((lp1682
S'54092-0517-02'
p1683
atp1684
Rp1685
sS'7438 7438'
p1686
g1
((lp1687
g116
atp1688
Rp1689
sS'os'
p1690
g1
((lp1691
g112
atp1692
Rp1693
sS'barr 808'
p1694
g1
((lp1695
g111
atp1696
Rp1697
sS'2929'
p1698
g1
((lp1699
g257
atp1700
Rp1701
sS'2779'
p1702
g1
((lp1703
g160
atp1704
Rp1705
sS'40 mg'
p1706
g1
((lp1707
g286
atp1708
Rp1709
sS'WARFARIA'
p1710
g1
((lp1711
g21
atp1712
Rp1713
sS'3210'
p1714
g1
((lp1715
g196
atp1716
Rp1717
sS'400 mg'
p1718
g1
((lp1719
g276
atp1720
Rp1721
sS'NC'
p1722
g1
((lp1723
g11
atp1724
Rp1725
sS'482'
p1726
g1
((lp1727
g49
atp1728
Rp1729
sS'O P'
p1730
g1
((lp1731
g285
atp1732
Rp1733
sS'1010 MYLAN'
p1734
g1
((lp1735
g171
atp1736
Rp1737
sS'barr 936'
p1738
g1
((lp1739
g17
atp1740
Rp1741
sS'barr 935'
p1742
g1
((lp1743
g130
atp1744
Rp1745
sS'1 gram'
p1746
g1
((lp1747
g297
atp1748
Rp1749
sS'757'
p1750
g1
((lp1751
g225
atp1752
Rp1753
sS'TEVA 7335'
p1754
g1
((lp1755
g293
atp1756
Rp1757
sS'TEVA 7336'
p1758
g1
((lp1759
g91
atp1760
Rp1761
sS'759'
p1762
g1
((lp1763
g197
atp1764
Rp1765
sS'2212'
p1766
g1
((lp1767
g117
atp1768
Rp1769
sS'1026'
p1770
g1
((lp1771
g237
atp1772
Rp1773
sS'EXIU'
p1774
g1
((lp1775
g286
atp1776
Rp1777
sS'2427-28'
p1778
g1
((lp1779
g208
atp1780
Rp1781
sS'150'
p1782
g1
((lp1783
g153
ag312
atp1784
Rp1785
sS'153'
p1786
g1
((lp1787
g224
atp1788
Rp1789
sS'TEVA 0813'
p1790
g1
((lp1791
g1674
atp1792
Rp1793
sS'5 mg'
p1794
g1
((lp1795
g605
ag179
atp1796
Rp1797
sS'WATSO'
p1798
g1
((lp1799
g9
atp1800
Rp1801
sS'PLIVA'
p1802
g1
((lp1803
g70
ag40
atp1804
Rp1805
sS'TV'
p1806
g1
((lp1807
g228
atp1808
Rp1809
sS'3105'
p1810
g1
((lp1811
g103
atp1812
Rp1813
sS'A18'
p1814
g1
((lp1815
g228
atp1816
Rp1817
sS'40'
p1818
g1
((lp1819
g168
atp1820
Rp1821
sS'41'
p1822
g1
((lp1823
g229
atp1824
Rp1825
sS'A5'
p1826
g1
((lp1827
g83
atp1828
Rp1829
sS'%150'
p1830
g1
((lp1831
S'00172-5412-79'
p1832
atp1833
Rp1834
sS'ATON\xc4\xb0 2.65'
p1835
g1
((lp1836
g90
atp1837
Rp1838
sS'MYCO'
p1839
g1
((lp1840
g220
atp1841
Rp1842
sS'Sy18 mg'
p1843
g1
((lp1844
g16
atp1845
Rp1846
sS'TEVA7442'
p1847
g1
((lp1848
g35
atp1849
Rp1850
sS'/52'
p1851
g1
((lp1852
S'00093-0752-01'
p1853
atp1854
Rp1855
sS'C04'
p1856
g1
((lp1857
g78
atp1858
Rp1859
sS'BMOS'
p1860
g1
((lp1861
g284
atp1862
Rp1863
sS'TEVA 3109'
p1864
g1
((lp1865
g164
atp1866
Rp1867
sS'FLZ 200'
p1868
g1
((lp1869
g256
atp1870
Rp1871
sS'10/8'
p1872
g1
((lp1873
g263
atp1874
Rp1875
sS'3196'
p1876
g1
((lp1877
g151
atp1878
Rp1879
sS'20 mg'
p1880
g1
((lp1881
g245
ag103
atp1882
Rp1883
sS'2004'
p1884
g1
((lp1885
g122
atp1886
Rp1887
sS'475'
p1888
g1
((lp1889
g76
atp1890
Rp1891
sS'Pizer PG N'
p1892
g1
((lp1893
g212
atp1894
Rp1895
s.